

Microchip MPLAB XC8 Assembler V2.35 build 20211206165544 
                                                                                               Fri Apr 29 14:49:24 2022

Microchip MPLAB XC8 C Compiler v2.35 (Free license) build 20211206165544 Og1 
     1                           	processor	16F887
     2                           	pagewidth 120
     3                           	opt	flic
     4                           	psect	cinit,global,class=CODE,merge=1,delta=2
     5                           	psect	bssBANK1,global,class=BANK1,space=1,delta=1,noexec
     6                           	psect	cstackBANK1,global,class=BANK1,space=1,delta=1,noexec
     7                           	psect	cstackCOMMON,global,class=COMMON,space=1,delta=1,noexec
     8                           	psect	cstackBANK0,global,class=BANK0,space=1,delta=1,noexec
     9                           	psect	maintext,global,class=CODE,split=1,delta=2
    10                           	psect	text1,local,class=CODE,merge=1,delta=2
    11                           	psect	text2,local,class=CODE,merge=1,delta=2
    12                           	psect	intentry,global,class=CODE,delta=2
    13                           	psect	text3,local,class=CODE,merge=1,delta=2
    14                           	psect	text4,local,class=CODE,merge=1,delta=2,group=1
    15                           	psect	text5,local,class=CODE,merge=1,delta=2,group=1
    16                           	psect	text6,local,class=CODE,merge=1,delta=2,group=1
    17                           	psect	text7,local,class=CODE,merge=1,delta=2,group=1
    18                           	psect	text8,local,class=CODE,merge=1,delta=2,group=1
    19                           	psect	text9,local,class=CODE,merge=1,delta=2,group=1
    20                           	psect	idloc,global,abs,ovrld,class=IDLOC,space=5,delta=2,noexec
    21                           	psect	config,global,abs,ovrld,class=CONFIG,space=4,delta=2,noexec
    22                           	dabs	1,0x7E,2
    23  0000                     
    24                           ; Version 2.40
    25                           ; Generated 17/11/2021 GMT
    26                           ; 
    27                           ; Copyright © 2021, Microchip Technology Inc. and its subsidiaries ("Microchip")
    28                           ; All rights reserved.
    29                           ; 
    30                           ; This software is developed by Microchip Technology Inc. and its subsidiaries ("Microch
      +                          ip").
    31                           ; 
    32                           ; Redistribution and use in source and binary forms, with or without modification, are
    33                           ; permitted provided that the following conditions are met:
    34                           ; 
    35                           ;     1. Redistributions of source code must retain the above copyright notice, this lis
      +                          t of
    36                           ;        conditions and the following disclaimer.
    37                           ; 
    38                           ;     2. Redistributions in binary form must reproduce the above copyright notice, this 
      +                          list
    39                           ;        of conditions and the following disclaimer in the documentation and/or other
    40                           ;        materials provided with the distribution. Publication is not required when
    41                           ;        this file is used in an embedded application.
    42                           ; 
    43                           ;     3. Microchip's name may not be used to endorse or promote products derived from th
      +                          is
    44                           ;        software without specific prior written permission.
    45                           ; 
    46                           ; THIS SOFTWARE IS PROVIDED BY MICROCHIP "AS IS" AND ANY EXPRESS OR IMPLIED WARRANTIES,
    47                           ; INCLUDING, BUT NOT LIMITED TO, THE IMPLIED WARRANTIES OF MERCHANTABILITY AND FITNESS F
      +                          OR
    48                           ; PURPOSE ARE DISCLAIMED.  IN NO EVENT SHALL MICROCHIP BE LIABLE FOR ANY DIRECT, INDIREC
      +                          T,
    49                           ; INCIDENTAL, SPECIAL, EXEMPLARY, OR CONSEQUENTIAL DAMAGES (INCLUDING BUT NOT LIMITED TO
    50                           ; PROCUREMENT OF SUBSTITUTE GOODS OR SERVICES; LOSS OF USE, DATA OR PROFITS; OR BUSINESS
    51                           ; INTERRUPTION) HOWSOEVER CAUSED AND ON ANY THEORY OF LIABILITY, WHETHER IN CONTRACT, ST
      +                          RICT
    52                           ; LIABILITY, OR TORT (INCLUDING NEGLIGENCE OR OTHERWISE) ARISING IN ANY WAY OUT OF THE U
      +                          SE OF
    53                           ; THIS SOFTWARE, EVEN IF ADVISED OF THE POSSIBILITY OF SUCH DAMAGE.
    54                           ; 
    55                           ; 
    56                           ; Code-generator required, PIC16F887 Definitions
    57                           ; 
    58                           ; SFR Addresses
    59  0000                     	;# 
    60  0001                     	;# 
    61  0002                     	;# 
    62  0003                     	;# 
    63  0004                     	;# 
    64  0005                     	;# 
    65  0006                     	;# 
    66  0007                     	;# 
    67  0008                     	;# 
    68  0009                     	;# 
    69  000A                     	;# 
    70  000B                     	;# 
    71  000C                     	;# 
    72  000D                     	;# 
    73  000E                     	;# 
    74  000E                     	;# 
    75  000F                     	;# 
    76  0010                     	;# 
    77  0011                     	;# 
    78  0012                     	;# 
    79  0013                     	;# 
    80  0014                     	;# 
    81  0015                     	;# 
    82  0015                     	;# 
    83  0016                     	;# 
    84  0017                     	;# 
    85  0018                     	;# 
    86  0019                     	;# 
    87  001A                     	;# 
    88  001B                     	;# 
    89  001B                     	;# 
    90  001C                     	;# 
    91  001D                     	;# 
    92  001E                     	;# 
    93  001F                     	;# 
    94  0081                     	;# 
    95  0085                     	;# 
    96  0086                     	;# 
    97  0087                     	;# 
    98  0088                     	;# 
    99  0089                     	;# 
   100  008C                     	;# 
   101  008D                     	;# 
   102  008E                     	;# 
   103  008F                     	;# 
   104  0090                     	;# 
   105  0091                     	;# 
   106  0092                     	;# 
   107  0093                     	;# 
   108  0093                     	;# 
   109  0093                     	;# 
   110  0094                     	;# 
   111  0095                     	;# 
   112  0096                     	;# 
   113  0097                     	;# 
   114  0098                     	;# 
   115  0099                     	;# 
   116  009A                     	;# 
   117  009B                     	;# 
   118  009C                     	;# 
   119  009D                     	;# 
   120  009E                     	;# 
   121  009F                     	;# 
   122  0105                     	;# 
   123  0107                     	;# 
   124  0108                     	;# 
   125  0109                     	;# 
   126  010C                     	;# 
   127  010C                     	;# 
   128  010D                     	;# 
   129  010E                     	;# 
   130  010F                     	;# 
   131  0185                     	;# 
   132  0187                     	;# 
   133  0188                     	;# 
   134  0189                     	;# 
   135  018C                     	;# 
   136  018D                     	;# 
   137  0000                     	;# 
   138  0001                     	;# 
   139  0002                     	;# 
   140  0003                     	;# 
   141  0004                     	;# 
   142  0005                     	;# 
   143  0006                     	;# 
   144  0007                     	;# 
   145  0008                     	;# 
   146  0009                     	;# 
   147  000A                     	;# 
   148  000B                     	;# 
   149  000C                     	;# 
   150  000D                     	;# 
   151  000E                     	;# 
   152  000E                     	;# 
   153  000F                     	;# 
   154  0010                     	;# 
   155  0011                     	;# 
   156  0012                     	;# 
   157  0013                     	;# 
   158  0014                     	;# 
   159  0015                     	;# 
   160  0015                     	;# 
   161  0016                     	;# 
   162  0017                     	;# 
   163  0018                     	;# 
   164  0019                     	;# 
   165  001A                     	;# 
   166  001B                     	;# 
   167  001B                     	;# 
   168  001C                     	;# 
   169  001D                     	;# 
   170  001E                     	;# 
   171  001F                     	;# 
   172  0081                     	;# 
   173  0085                     	;# 
   174  0086                     	;# 
   175  0087                     	;# 
   176  0088                     	;# 
   177  0089                     	;# 
   178  008C                     	;# 
   179  008D                     	;# 
   180  008E                     	;# 
   181  008F                     	;# 
   182  0090                     	;# 
   183  0091                     	;# 
   184  0092                     	;# 
   185  0093                     	;# 
   186  0093                     	;# 
   187  0093                     	;# 
   188  0094                     	;# 
   189  0095                     	;# 
   190  0096                     	;# 
   191  0097                     	;# 
   192  0098                     	;# 
   193  0099                     	;# 
   194  009A                     	;# 
   195  009B                     	;# 
   196  009C                     	;# 
   197  009D                     	;# 
   198  009E                     	;# 
   199  009F                     	;# 
   200  0105                     	;# 
   201  0107                     	;# 
   202  0108                     	;# 
   203  0109                     	;# 
   204  010C                     	;# 
   205  010C                     	;# 
   206  010D                     	;# 
   207  010E                     	;# 
   208  010F                     	;# 
   209  0185                     	;# 
   210  0187                     	;# 
   211  0188                     	;# 
   212  0189                     	;# 
   213  018C                     	;# 
   214  018D                     	;# 
   215  0012                     _T2CONbits	set	18
   216  001D                     _CCP2CON	set	29
   217  0017                     _CCP1CON	set	23
   218  000B                     _INTCONbits	set	11
   219  0005                     _PORTA	set	5
   220  001D                     _CCP2CONbits	set	29
   221  001B                     _CCPR2L	set	27
   222  0017                     _CCP1CONbits	set	23
   223  0015                     _CCPR1L	set	21
   224  001E                     _ADRESH	set	30
   225  001F                     _ADCON0bits	set	31
   226  000C                     _PIR1bits	set	12
   227  0092                     _PR2	set	146
   228  0087                     _TRISCbits	set	135
   229  009F                     _ADCON1bits	set	159
   230  008F                     _OSCCONbits	set	143
   231  008C                     _PIE1bits	set	140
   232  0085                     _TRISA	set	133
   233  0189                     _ANSELH	set	393
   234  0188                     _ANSEL	set	392
   235                           
   236                           	psect	cinit
   237  0013                     start_initialization:	
   238                           ; #config settings
   239                           
   240  0013                     __initialization:
   241                           
   242                           ; Clear objects allocated to BANK1
   243  0013  1683               	bsf	3,5	;RP0=1, select bank1
   244  0014  1303               	bcf	3,6	;RP1=0, select bank1
   245  0015  01B2               	clrf	__pbssBANK1& (0+127)
   246  0016  01B3               	clrf	(__pbssBANK1+1)& (0+127)
   247  0017  01B4               	clrf	(__pbssBANK1+2)& (0+127)
   248  0018  01B5               	clrf	(__pbssBANK1+3)& (0+127)
   249  0019                     end_of_initialization:	
   250                           ;End of C runtime variable initialization code
   251                           
   252  0019                     __end_of__initialization:
   253  0019  0183               	clrf	3
   254  001A  120A  158A  2CAE   	ljmp	_main	;jump to C main() function
   255                           
   256                           	psect	bssBANK1
   257  00B2                     __pbssBANK1:
   258  00B2                     _CCPR_2:
   259  00B2                     	ds	2
   260  00B4                     _CCPR:
   261  00B4                     	ds	2
   262                           
   263                           	psect	cstackBANK1
   264  00A0                     __pcstackBANK1:
   265  00A0                     ??___fltol:
   266                           
   267                           ; 1 bytes @ 0x0
   268  00A0                     	ds	5
   269  00A5                     ?_map:
   270  00A5                     map@x0:	
   271                           ; 2 bytes @ 0x5
   272                           
   273                           
   274                           ; 1 bytes @ 0x5
   275  00A5                     	ds	1
   276  00A6                     map@x1:
   277                           
   278                           ; 1 bytes @ 0x6
   279  00A6                     	ds	1
   280  00A7                     map@y0:
   281                           
   282                           ; 2 bytes @ 0x7
   283  00A7                     	ds	2
   284  00A9                     map@y1:
   285                           
   286                           ; 2 bytes @ 0x9
   287  00A9                     	ds	2
   288  00AB                     ??_isr:
   289                           
   290                           ; 1 bytes @ 0xB
   291  00AB                     	ds	5
   292  00B0                     ??_setup:
   293                           
   294                           ; 1 bytes @ 0x10
   295  00B0                     	ds	1
   296  00B1                     ??_main:
   297                           
   298                           ; 1 bytes @ 0x11
   299  00B1                     	ds	1
   300                           
   301                           	psect	cstackCOMMON
   302  0070                     __pcstackCOMMON:
   303  0070                     ?_setup:
   304  0070                     ?_isr:	
   305                           ; 1 bytes @ 0x0
   306                           
   307  0070                     ?_main:	
   308                           ; 1 bytes @ 0x0
   309                           
   310  0070                     ?__Umul8_16:	
   311                           ; 1 bytes @ 0x0
   312                           
   313  0070                     ?___xxtofl:	
   314                           ; 2 bytes @ 0x0
   315                           
   316  0070                     __Umul8_16@multiplicand:	
   317                           ; 4 bytes @ 0x0
   318                           
   319  0070                     ___xxtofl@val:	
   320                           ; 1 bytes @ 0x0
   321                           
   322                           
   323                           ; 4 bytes @ 0x0
   324  0070                     	ds	2
   325  0072                     ??__Umul8_16:
   326                           
   327                           ; 1 bytes @ 0x2
   328  0072                     	ds	2
   329  0074                     ??___xxtofl:
   330  0074                     __Umul8_16@product:	
   331                           ; 1 bytes @ 0x4
   332                           
   333                           
   334                           ; 2 bytes @ 0x4
   335  0074                     	ds	2
   336  0076                     __Umul8_16@word_mpld:
   337                           
   338                           ; 2 bytes @ 0x6
   339  0076                     	ds	2
   340  0078                     __Umul8_16@multiplier:
   341  0078                     ___xxtofl@sign:	
   342                           ; 1 bytes @ 0x8
   343                           
   344                           
   345                           ; 1 bytes @ 0x8
   346  0078                     	ds	1
   347  0079                     ___xxtofl@exp:
   348                           
   349                           ; 1 bytes @ 0x9
   350  0079                     	ds	1
   351  007A                     ___xxtofl@arg:
   352                           
   353                           ; 4 bytes @ 0xA
   354  007A                     	ds	4
   355  007E                     ??_map:
   356                           
   357                           	psect	cstackBANK0
   358  0020                     __pcstackBANK0:	
   359                           ; 1 bytes @ 0xE
   360                           
   361  0020                     ?___fldiv:
   362  0020                     ___fldiv@a:	
   363                           ; 4 bytes @ 0x0
   364                           
   365                           
   366                           ; 4 bytes @ 0x0
   367  0020                     	ds	4
   368  0024                     ___fldiv@b:
   369                           
   370                           ; 4 bytes @ 0x4
   371  0024                     	ds	4
   372  0028                     ??___fldiv:
   373                           
   374                           ; 1 bytes @ 0x8
   375  0028                     	ds	5
   376  002D                     ___fldiv@rem:
   377                           
   378                           ; 4 bytes @ 0xD
   379  002D                     	ds	4
   380  0031                     ___fldiv@sign:
   381                           
   382                           ; 1 bytes @ 0x11
   383  0031                     	ds	1
   384  0032                     ___fldiv@new_exp:
   385                           
   386                           ; 2 bytes @ 0x12
   387  0032                     	ds	2
   388  0034                     ___fldiv@grs:
   389                           
   390                           ; 4 bytes @ 0x14
   391  0034                     	ds	4
   392  0038                     ___fldiv@bexp:
   393                           
   394                           ; 1 bytes @ 0x18
   395  0038                     	ds	1
   396  0039                     ___fldiv@aexp:
   397                           
   398                           ; 1 bytes @ 0x19
   399  0039                     	ds	1
   400  003A                     ?___flmul:
   401  003A                     ___flmul@b:	
   402                           ; 4 bytes @ 0x1A
   403                           
   404                           
   405                           ; 4 bytes @ 0x1A
   406  003A                     	ds	4
   407  003E                     ___flmul@a:
   408                           
   409                           ; 4 bytes @ 0x1E
   410  003E                     	ds	4
   411  0042                     ??___flmul:
   412                           
   413                           ; 1 bytes @ 0x22
   414  0042                     	ds	5
   415  0047                     ___flmul@sign:
   416                           
   417                           ; 1 bytes @ 0x27
   418  0047                     	ds	1
   419  0048                     ___flmul@grs:
   420                           
   421                           ; 4 bytes @ 0x28
   422  0048                     	ds	4
   423  004C                     ___flmul@aexp:
   424                           
   425                           ; 1 bytes @ 0x2C
   426  004C                     	ds	1
   427  004D                     ___flmul@bexp:
   428                           
   429                           ; 1 bytes @ 0x2D
   430  004D                     	ds	1
   431  004E                     ___flmul@prod:
   432                           
   433                           ; 4 bytes @ 0x2E
   434  004E                     	ds	4
   435  0052                     ___flmul@temp:
   436                           
   437                           ; 2 bytes @ 0x32
   438  0052                     	ds	2
   439  0054                     ?___fladd:
   440  0054                     ___fladd@b:	
   441                           ; 4 bytes @ 0x34
   442                           
   443                           
   444                           ; 4 bytes @ 0x34
   445  0054                     	ds	4
   446  0058                     ___fladd@a:
   447                           
   448                           ; 4 bytes @ 0x38
   449  0058                     	ds	4
   450  005C                     ??___fladd:
   451                           
   452                           ; 1 bytes @ 0x3C
   453  005C                     	ds	8
   454  0064                     ___fladd@signs:
   455                           
   456                           ; 1 bytes @ 0x44
   457  0064                     	ds	1
   458  0065                     ___fladd@aexp:
   459                           
   460                           ; 1 bytes @ 0x45
   461  0065                     	ds	1
   462  0066                     ___fladd@bexp:
   463                           
   464                           ; 1 bytes @ 0x46
   465  0066                     	ds	1
   466  0067                     ___fladd@grs:
   467                           
   468                           ; 1 bytes @ 0x47
   469  0067                     	ds	1
   470  0068                     ?___fltol:
   471  0068                     ___fltol@f1:	
   472                           ; 4 bytes @ 0x48
   473                           
   474                           
   475                           ; 4 bytes @ 0x48
   476  0068                     	ds	4
   477  006C                     ___fltol@sign1:
   478                           
   479                           ; 1 bytes @ 0x4C
   480  006C                     	ds	1
   481  006D                     ___fltol@exp1:
   482                           
   483                           ; 1 bytes @ 0x4D
   484  006D                     	ds	1
   485  006E                     map@x:
   486                           
   487                           ; 1 bytes @ 0x4E
   488  006E                     	ds	1
   489                           
   490                           	psect	maintext
   491  0CAE                     __pmaintext:	
   492 ;;
   493 ;;Main: autosize = 0, tempsize = 1, incstack = 0, save=0
   494 ;;
   495 ;; *************** function _main *****************
   496 ;; Defined at:
   497 ;;		line 60 in file "Lab9.c"
   498 ;; Parameters:    Size  Location     Type
   499 ;;		None
   500 ;; Auto vars:     Size  Location     Type
   501 ;;		None
   502 ;; Return value:  Size  Location     Type
   503 ;;                  1    wreg      void 
   504 ;; Registers used:
   505 ;;		wreg, status,2, status,0, pclath, cstack
   506 ;; Tracked objects:
   507 ;;		On entry : B00/0
   508 ;;		On exit  : 0/0
   509 ;;		Unchanged: 0/0
   510 ;; Data sizes:     COMMON   BANK0   BANK1   BANK3   BANK2
   511 ;;      Params:         0       0       0       0       0
   512 ;;      Locals:         0       0       0       0       0
   513 ;;      Temps:          0       0       1       0       0
   514 ;;      Totals:         0       0       1       0       0
   515 ;;Total ram usage:        1 bytes
   516 ;; Hardware stack levels required when called: 5
   517 ;; This function calls:
   518 ;;		_setup
   519 ;; This function is called by:
   520 ;;		Startup code after reset
   521 ;; This function uses a non-reentrant model
   522 ;;
   523                           
   524  0CAE                     _main:	
   525                           ;psect for function _main
   526                           
   527  0CAE                     l2012:	
   528                           ;incstack = 0
   529                           ; Regs used in _main: [wreg+status,2+status,0+pclath+cstack]
   530                           
   531                           
   532                           ;Lab9.c: 61:     setup();
   533  0CAE  120A  158A  24EA  120A  158A  	fcall	_setup
   534  0CB3                     l2014:
   535                           
   536                           ;Lab9.c: 63:         if (ADCON0bits.GO == 0){
   537  0CB3  1283               	bcf	3,5	;RP0=0, select bank0
   538  0CB4  1303               	bcf	3,6	;RP1=0, select bank0
   539  0CB5  189F               	btfsc	31,1	;volatile
   540  0CB6  2CB8               	goto	u2901
   541  0CB7  2CB9               	goto	u2900
   542  0CB8                     u2901:
   543  0CB8  2CB3               	goto	l2014
   544  0CB9                     u2900:
   545  0CB9                     l2016:
   546                           
   547                           ;Lab9.c: 64:             if(ADCON0bits.CHS == 0){
   548  0CB9  0C1F               	rrf	31,w	;volatile
   549  0CBA  1683               	bsf	3,5	;RP0=1, select bank1
   550  0CBB  1303               	bcf	3,6	;RP1=0, select bank1
   551  0CBC  00B1               	movwf	??_main^(0+128)
   552  0CBD  0C31               	rrf	??_main^(0+128),w
   553  0CBE  390F               	andlw	15
   554  0CBF  3A00               	xorlw	0
   555  0CC0  1D03               	skipz
   556  0CC1  2CC3               	goto	u2911
   557  0CC2  2CC4               	goto	u2910
   558  0CC3                     u2911:
   559  0CC3  2CCB               	goto	l2020
   560  0CC4                     u2910:
   561  0CC4                     l2018:
   562                           
   563                           ;Lab9.c: 65:                 ADCON0bits.CHS = 0b0001;
   564  0CC4  1283               	bcf	3,5	;RP0=0, select bank0
   565  0CC5  1303               	bcf	3,6	;RP1=0, select bank0
   566  0CC6  081F               	movf	31,w	;volatile
   567  0CC7  39C3               	andlw	-61
   568  0CC8  3804               	iorlw	4
   569  0CC9  009F               	movwf	31	;volatile
   570                           
   571                           ;Lab9.c: 66:             }
   572  0CCA  2CDC               	goto	l2024
   573  0CCB                     l2020:
   574  0CCB  1283               	bcf	3,5	;RP0=0, select bank0
   575  0CCC  1303               	bcf	3,6	;RP1=0, select bank0
   576  0CCD  0C1F               	rrf	31,w	;volatile
   577  0CCE  1683               	bsf	3,5	;RP0=1, select bank1
   578  0CCF  1303               	bcf	3,6	;RP1=0, select bank1
   579  0CD0  00B1               	movwf	??_main^(0+128)
   580  0CD1  0C31               	rrf	??_main^(0+128),w
   581  0CD2  390F               	andlw	15
   582  0CD3  3A01               	xorlw	1
   583  0CD4  1D03               	skipz
   584  0CD5  2CD7               	goto	u2921
   585  0CD6  2CD8               	goto	u2920
   586  0CD7                     u2921:
   587  0CD7  2CDC               	goto	l2024
   588  0CD8                     u2920:
   589  0CD8                     l2022:
   590                           
   591                           ;Lab9.c: 68:                 ADCON0bits.CHS = 0b0000;
   592  0CD8  30C3               	movlw	-61
   593  0CD9  1283               	bcf	3,5	;RP0=0, select bank0
   594  0CDA  1303               	bcf	3,6	;RP1=0, select bank0
   595  0CDB  059F               	andwf	31,f	;volatile
   596  0CDC                     l2024:
   597                           
   598                           ;Lab9.c: 70:              _delay((unsigned long)((320)*(500000/4000000.0)));
   599  0CDC  300C               	movlw	12
   600  0CDD  1683               	bsf	3,5	;RP0=1, select bank1
   601  0CDE  1303               	bcf	3,6	;RP1=0, select bank1
   602  0CDF  00B1               	movwf	??_main^(0+128)
   603  0CE0                     u2937:
   604  0CE0  0BB1               	decfsz	??_main^(0+128),f
   605  0CE1  2CE0               	goto	u2937
   606  0CE2  0000               	nop
   607  0CE3                     l2026:
   608                           
   609                           ;Lab9.c: 71:             ADCON0bits.GO = 1;
   610  0CE3  1283               	bcf	3,5	;RP0=0, select bank0
   611  0CE4  1303               	bcf	3,6	;RP1=0, select bank0
   612  0CE5  149F               	bsf	31,1	;volatile
   613  0CE6  2CB3               	goto	l2014
   614  0CE7  120A  118A  2810   	ljmp	start
   615  0CEA                     __end_of_main:
   616                           
   617                           	psect	text1
   618  0CEA                     __ptext1:	
   619 ;; *************** function _setup *****************
   620 ;; Defined at:
   621 ;;		line 77 in file "Lab9.c"
   622 ;; Parameters:    Size  Location     Type
   623 ;;		None
   624 ;; Auto vars:     Size  Location     Type
   625 ;;		None
   626 ;; Return value:  Size  Location     Type
   627 ;;                  1    wreg      void 
   628 ;; Registers used:
   629 ;;		wreg, status,2, status,0
   630 ;; Tracked objects:
   631 ;;		On entry : 0/0
   632 ;;		On exit  : 0/0
   633 ;;		Unchanged: 0/0
   634 ;; Data sizes:     COMMON   BANK0   BANK1   BANK3   BANK2
   635 ;;      Params:         0       0       0       0       0
   636 ;;      Locals:         0       0       0       0       0
   637 ;;      Temps:          0       0       1       0       0
   638 ;;      Totals:         0       0       1       0       0
   639 ;;Total ram usage:        1 bytes
   640 ;; Hardware stack levels used: 1
   641 ;; Hardware stack levels required when called: 4
   642 ;; This function calls:
   643 ;;		Nothing
   644 ;; This function is called by:
   645 ;;		_main
   646 ;; This function uses a non-reentrant model
   647 ;;
   648                           
   649  0CEA                     _setup:	
   650                           ;psect for function _setup
   651                           
   652  0CEA                     l1924:	
   653                           ;incstack = 0
   654                           ; Regs used in _setup: [wreg+status,2+status,0]
   655                           
   656                           
   657                           ;Lab9.c: 78:     ANSEL = 0b00000011;
   658  0CEA  3003               	movlw	3
   659  0CEB  1683               	bsf	3,5	;RP0=1, select bank3
   660  0CEC  1703               	bsf	3,6	;RP1=1, select bank3
   661  0CED  0088               	movwf	8	;volatile
   662  0CEE                     l1926:
   663                           
   664                           ;Lab9.c: 79:     ANSELH = 0;
   665  0CEE  0189               	clrf	9	;volatile
   666  0CEF                     l1928:
   667                           
   668                           ;Lab9.c: 81:     TRISA = 0b00000011;
   669  0CEF  3003               	movlw	3
   670  0CF0  1683               	bsf	3,5	;RP0=1, select bank1
   671  0CF1  1303               	bcf	3,6	;RP1=0, select bank1
   672  0CF2  0085               	movwf	5	;volatile
   673                           
   674                           ;Lab9.c: 82:     PORTA = 0x00;
   675  0CF3  1283               	bcf	3,5	;RP0=0, select bank0
   676  0CF4  1303               	bcf	3,6	;RP1=0, select bank0
   677  0CF5  0185               	clrf	5	;volatile
   678  0CF6                     l1930:
   679                           
   680                           ;Lab9.c: 85:     PIR1bits.ADIF = 0;
   681  0CF6  130C               	bcf	12,6	;volatile
   682  0CF7                     l1932:
   683                           
   684                           ;Lab9.c: 86:     PIE1bits.ADIE = 1;
   685  0CF7  1683               	bsf	3,5	;RP0=1, select bank1
   686  0CF8  1303               	bcf	3,6	;RP1=0, select bank1
   687  0CF9  170C               	bsf	12,6	;volatile
   688  0CFA                     l1934:
   689                           
   690                           ;Lab9.c: 87:     INTCONbits.PEIE = 1;
   691  0CFA  170B               	bsf	11,6	;volatile
   692  0CFB                     l1936:
   693                           
   694                           ;Lab9.c: 88:     INTCONbits.GIE = 1;
   695  0CFB  178B               	bsf	11,7	;volatile
   696  0CFC                     l1938:
   697                           
   698                           ;Lab9.c: 91:     OSCCONbits.IRCF = 0b0011;
   699  0CFC  080F               	movf	15,w	;volatile
   700  0CFD  398F               	andlw	-113
   701  0CFE  3830               	iorlw	48
   702  0CFF  008F               	movwf	15	;volatile
   703  0D00                     l1940:
   704                           
   705                           ;Lab9.c: 92:     OSCCONbits.SCS = 1;
   706  0D00  140F               	bsf	15,0	;volatile
   707  0D01                     l1942:
   708                           
   709                           ;Lab9.c: 95:     ADCON0bits.ADCS = 0b00000001;
   710  0D01  1283               	bcf	3,5	;RP0=0, select bank0
   711  0D02  1303               	bcf	3,6	;RP1=0, select bank0
   712  0D03  081F               	movf	31,w	;volatile
   713  0D04  393F               	andlw	-193
   714  0D05  3840               	iorlw	64
   715  0D06  009F               	movwf	31	;volatile
   716  0D07                     l1944:
   717                           
   718                           ;Lab9.c: 96:     ADCON1bits.VCFG0 = 0;
   719  0D07  1683               	bsf	3,5	;RP0=1, select bank1
   720  0D08  1303               	bcf	3,6	;RP1=0, select bank1
   721  0D09  121F               	bcf	31,4	;volatile
   722  0D0A                     l1946:
   723                           
   724                           ;Lab9.c: 97:     ADCON1bits.VCFG1 = 0;
   725  0D0A  129F               	bcf	31,5	;volatile
   726  0D0B                     l1948:
   727                           
   728                           ;Lab9.c: 98:     ADCON0bits.CHS = 0b0000;
   729  0D0B  30C3               	movlw	-61
   730  0D0C  1283               	bcf	3,5	;RP0=0, select bank0
   731  0D0D  1303               	bcf	3,6	;RP1=0, select bank0
   732  0D0E  059F               	andwf	31,f	;volatile
   733  0D0F                     l1950:
   734                           
   735                           ;Lab9.c: 99:     ADCON1bits.ADFM = 0;
   736  0D0F  1683               	bsf	3,5	;RP0=1, select bank1
   737  0D10  1303               	bcf	3,6	;RP1=0, select bank1
   738  0D11  139F               	bcf	31,7	;volatile
   739  0D12                     l1952:
   740                           
   741                           ;Lab9.c: 100:     ADCON0bits.ADON = 1;
   742  0D12  1283               	bcf	3,5	;RP0=0, select bank0
   743  0D13  1303               	bcf	3,6	;RP1=0, select bank0
   744  0D14  141F               	bsf	31,0	;volatile
   745  0D15                     l1954:
   746                           
   747                           ;Lab9.c: 101:     _delay((unsigned long)((320)*(500000/4000000.0)));
   748  0D15  300C               	movlw	12
   749  0D16  1683               	bsf	3,5	;RP0=1, select bank1
   750  0D17  1303               	bcf	3,6	;RP1=0, select bank1
   751  0D18  00B0               	movwf	??_setup^(0+128)
   752  0D19                     u2947:
   753  0D19  0BB0               	decfsz	??_setup^(0+128),f
   754  0D1A  2D19               	goto	u2947
   755  0D1B  0000               	nop
   756  0D1C                     l1956:
   757                           
   758                           ;Lab9.c: 104:     TRISCbits.TRISC2 = 1;
   759  0D1C  1683               	bsf	3,5	;RP0=1, select bank1
   760  0D1D  1303               	bcf	3,6	;RP1=0, select bank1
   761  0D1E  1507               	bsf	7,2	;volatile
   762  0D1F                     l1958:
   763                           
   764                           ;Lab9.c: 105:     TRISCbits.TRISC1 = 1;
   765  0D1F  1487               	bsf	7,1	;volatile
   766  0D20                     l1960:
   767                           
   768                           ;Lab9.c: 106:     PR2 = 30;
   769  0D20  301E               	movlw	30
   770  0D21  0092               	movwf	18	;volatile
   771  0D22                     l1962:
   772                           
   773                           ;Lab9.c: 109:     CCP1CON = 0;
   774  0D22  1283               	bcf	3,5	;RP0=0, select bank0
   775  0D23  1303               	bcf	3,6	;RP1=0, select bank0
   776  0D24  0197               	clrf	23	;volatile
   777  0D25                     l1964:
   778                           
   779                           ;Lab9.c: 110:     CCP2CON = 0;
   780  0D25  019D               	clrf	29	;volatile
   781  0D26                     l1966:
   782                           
   783                           ;Lab9.c: 111:     CCP1CONbits.P1M = 0;
   784  0D26  303F               	movlw	-193
   785  0D27  0597               	andwf	23,f	;volatile
   786  0D28                     l1968:
   787                           
   788                           ;Lab9.c: 112:     CCP1CONbits.CCP1M = 0b1100;
   789  0D28  0817               	movf	23,w	;volatile
   790  0D29  39F0               	andlw	-16
   791  0D2A  380C               	iorlw	12
   792  0D2B  0097               	movwf	23	;volatile
   793  0D2C                     l1970:
   794                           
   795                           ;Lab9.c: 113:     CCP2CONbits.CCP2M = 0b1100;
   796  0D2C  081D               	movf	29,w	;volatile
   797  0D2D  39F0               	andlw	-16
   798  0D2E  380C               	iorlw	12
   799  0D2F  009D               	movwf	29	;volatile
   800  0D30                     l1972:
   801                           
   802                           ;Lab9.c: 115:     CCPR1L = 31>>2;
   803  0D30  3007               	movlw	7
   804  0D31  0095               	movwf	21	;volatile
   805  0D32                     l1974:
   806                           
   807                           ;Lab9.c: 116:     CCP1CONbits.DC1B = 31 & 0b11;
   808  0D32  3030               	movlw	48
   809  0D33  0497               	iorwf	23,f	;volatile
   810  0D34                     l1976:
   811                           
   812                           ;Lab9.c: 117:     CCPR2L = 31>>2;
   813  0D34  3007               	movlw	7
   814  0D35  009B               	movwf	27	;volatile
   815  0D36                     l1978:
   816                           
   817                           ;Lab9.c: 118:     CCP2CONbits.DC2B0 = 31 & 0b01;
   818  0D36  161D               	bsf	29,4	;volatile
   819  0D37                     l1980:
   820                           
   821                           ;Lab9.c: 119:     CCP2CONbits.DC2B1 = 31 & 0b10;
   822  0D37  129D               	bcf	29,5	;volatile
   823  0D38                     l1982:
   824                           
   825                           ;Lab9.c: 121:     PIR1bits.TMR2IF = 0;
   826  0D38  108C               	bcf	12,1	;volatile
   827  0D39                     l1984:
   828                           
   829                           ;Lab9.c: 122:     T2CONbits.T2CKPS = 0b11;
   830  0D39  3003               	movlw	3
   831  0D3A  0492               	iorwf	18,f	;volatile
   832  0D3B                     l1986:
   833                           
   834                           ;Lab9.c: 123:     T2CONbits.TMR2ON = 1;
   835  0D3B  1512               	bsf	18,2	;volatile
   836  0D3C                     l74:	
   837                           ;Lab9.c: 124:     while (!PIR1bits.TMR2IF);
   838                           
   839  0D3C  1C8C               	btfss	12,1	;volatile
   840  0D3D  2D3F               	goto	u2861
   841  0D3E  2D40               	goto	u2860
   842  0D3F                     u2861:
   843  0D3F  2D3C               	goto	l74
   844  0D40                     u2860:
   845  0D40                     l76:
   846                           
   847                           ;Lab9.c: 125:     PIR1bits.TMR2IF = 0;
   848  0D40  108C               	bcf	12,1	;volatile
   849                           
   850                           ;Lab9.c: 127:     TRISCbits.TRISC2 = 0;
   851  0D41  1683               	bsf	3,5	;RP0=1, select bank1
   852  0D42  1303               	bcf	3,6	;RP1=0, select bank1
   853  0D43  1107               	bcf	7,2	;volatile
   854                           
   855                           ;Lab9.c: 128:     TRISCbits.TRISC1 = 0;
   856  0D44  1087               	bcf	7,1	;volatile
   857  0D45                     l77:	
   858                           ;Lab9.c: 129:     return;
   859                           
   860  0D45  0008               	return
   861  0D46                     __end_of_setup:
   862                           
   863                           	psect	text2
   864  0E94                     __ptext2:	
   865 ;; *************** function _isr *****************
   866 ;; Defined at:
   867 ;;		line 41 in file "Lab9.c"
   868 ;; Parameters:    Size  Location     Type
   869 ;;		None
   870 ;; Auto vars:     Size  Location     Type
   871 ;;		None
   872 ;; Return value:  Size  Location     Type
   873 ;;                  1    wreg      void 
   874 ;; Registers used:
   875 ;;		wreg, status,2, status,0, btemp+1, pclath, cstack
   876 ;; Tracked objects:
   877 ;;		On entry : 0/0
   878 ;;		On exit  : 0/0
   879 ;;		Unchanged: 0/0
   880 ;; Data sizes:     COMMON   BANK0   BANK1   BANK3   BANK2
   881 ;;      Params:         0       0       0       0       0
   882 ;;      Locals:         0       0       0       0       0
   883 ;;      Temps:          0       0       5       0       0
   884 ;;      Totals:         0       0       5       0       0
   885 ;;Total ram usage:        5 bytes
   886 ;; Hardware stack levels used: 1
   887 ;; Hardware stack levels required when called: 3
   888 ;; This function calls:
   889 ;;		_map
   890 ;; This function is called by:
   891 ;;		Interrupt level 1
   892 ;; This function uses a non-reentrant model
   893 ;;
   894                           
   895  0E94                     _isr:	
   896                           ;psect for function _isr
   897                           
   898  0E94                     i1l1988:
   899                           
   900                           ;Lab9.c: 42:     if(PIR1bits.ADIF){
   901  0E94  1283               	bcf	3,5	;RP0=0, select bank0
   902  0E95  1303               	bcf	3,6	;RP1=0, select bank0
   903  0E96  1F0C               	btfss	12,6	;volatile
   904  0E97  2E99               	goto	u287_21
   905  0E98  2E9A               	goto	u287_20
   906  0E99                     u287_21:
   907  0E99  2F3B               	goto	i1l59
   908  0E9A                     u287_20:
   909  0E9A                     i1l1990:
   910                           
   911                           ;Lab9.c: 43:         if(ADCON0bits.CHS == 0){
   912  0E9A  0C1F               	rrf	31,w	;volatile
   913  0E9B  1683               	bsf	3,5	;RP0=1, select bank1
   914  0E9C  1303               	bcf	3,6	;RP1=0, select bank1
   915  0E9D  00AB               	movwf	??_isr^(0+128)
   916  0E9E  0C2B               	rrf	??_isr^(0+128),w
   917  0E9F  390F               	andlw	15
   918  0EA0  3A00               	xorlw	0
   919  0EA1  1D03               	skipz
   920  0EA2  2EA4               	goto	u288_21
   921  0EA3  2EA5               	goto	u288_20
   922  0EA4                     u288_21:
   923  0EA4  2EE0               	goto	i1l1998
   924  0EA5                     u288_20:
   925  0EA5                     i1l1992:
   926                           
   927                           ;Lab9.c: 44:             CCPR = map(ADRESH, 0, 255, 12, 81);
   928  0EA5  01A5               	clrf	map@x0^(0+128)
   929  0EA6  30FF               	movlw	255
   930  0EA7  00AB               	movwf	??_isr^(0+128)
   931  0EA8  082B               	movf	??_isr^(0+128),w
   932  0EA9  00A6               	movwf	map@x1^(0+128)
   933  0EAA  300C               	movlw	12
   934  0EAB  00A7               	movwf	map@y0^(0+128)
   935  0EAC  3000               	movlw	0
   936  0EAD  00A8               	movwf	(map@y0^(0+128)+1)
   937  0EAE  3051               	movlw	81
   938  0EAF  00A9               	movwf	map@y1^(0+128)
   939  0EB0  3000               	movlw	0
   940  0EB1  00AA               	movwf	(map@y1^(0+128)+1)
   941  0EB2  1283               	bcf	3,5	;RP0=0, select bank0
   942  0EB3  1303               	bcf	3,6	;RP1=0, select bank0
   943  0EB4  081E               	movf	30,w	;volatile
   944  0EB5  120A  158A  25E2  120A  158A  	fcall	_map
   945  0EBA  1683               	bsf	3,5	;RP0=1, select bank1
   946  0EBB  1303               	bcf	3,6	;RP1=0, select bank1
   947  0EBC  0826               	movf	(?_map+1)^(0+128),w
   948  0EBD  00B5               	movwf	(_CCPR+1)^(0+128)
   949  0EBE  0825               	movf	?_map^(0+128),w
   950  0EBF  00B4               	movwf	_CCPR^(0+128)
   951  0EC0                     i1l1994:
   952                           
   953                           ;Lab9.c: 45:             CCPR1L = (uint8_t)(CCPR>>2);
   954  0EC0  0835               	movf	(_CCPR+1)^(0+128),w
   955  0EC1  00AC               	movwf	(??_isr^(0+128)+1)
   956  0EC2  0834               	movf	_CCPR^(0+128),w
   957  0EC3  00AB               	movwf	??_isr^(0+128)
   958  0EC4  1003               	clrc
   959  0EC5  0CAC               	rrf	(??_isr^(0+128)+1),f
   960  0EC6  0CAB               	rrf	??_isr^(0+128),f
   961  0EC7  1003               	clrc
   962  0EC8  0CAC               	rrf	(??_isr^(0+128)+1),f
   963  0EC9  0CAB               	rrf	??_isr^(0+128),f
   964  0ECA  082B               	movf	??_isr^(0+128),w
   965  0ECB  1283               	bcf	3,5	;RP0=0, select bank0
   966  0ECC  1303               	bcf	3,6	;RP1=0, select bank0
   967  0ECD  0095               	movwf	21	;volatile
   968  0ECE                     i1l1996:
   969                           
   970                           ;Lab9.c: 46:             CCP1CONbits.DC1B = CCPR & 0b11;
   971  0ECE  1683               	bsf	3,5	;RP0=1, select bank1
   972  0ECF  1303               	bcf	3,6	;RP1=0, select bank1
   973  0ED0  0834               	movf	_CCPR^(0+128),w
   974  0ED1  3903               	andlw	3
   975  0ED2  00AB               	movwf	??_isr^(0+128)
   976  0ED3  0EAB               	swapf	??_isr^(0+128),f
   977  0ED4  1283               	bcf	3,5	;RP0=0, select bank0
   978  0ED5  1303               	bcf	3,6	;RP1=0, select bank0
   979  0ED6  0817               	movf	23,w	;volatile
   980  0ED7  1683               	bsf	3,5	;RP0=1, select bank1
   981  0ED8  1303               	bcf	3,6	;RP1=0, select bank1
   982  0ED9  062B               	xorwf	??_isr^(0+128),w
   983  0EDA  39CF               	andlw	-49
   984  0EDB  062B               	xorwf	??_isr^(0+128),w
   985  0EDC  1283               	bcf	3,5	;RP0=0, select bank0
   986  0EDD  1303               	bcf	3,6	;RP1=0, select bank0
   987  0EDE  0097               	movwf	23	;volatile
   988                           
   989                           ;Lab9.c: 47:         }
   990  0EDF  2F39               	goto	i1l2008
   991  0EE0                     i1l1998:
   992  0EE0  1283               	bcf	3,5	;RP0=0, select bank0
   993  0EE1  1303               	bcf	3,6	;RP1=0, select bank0
   994  0EE2  0C1F               	rrf	31,w	;volatile
   995  0EE3  1683               	bsf	3,5	;RP0=1, select bank1
   996  0EE4  1303               	bcf	3,6	;RP1=0, select bank1
   997  0EE5  00AB               	movwf	??_isr^(0+128)
   998  0EE6  0C2B               	rrf	??_isr^(0+128),w
   999  0EE7  390F               	andlw	15
  1000  0EE8  3A01               	xorlw	1
  1001  0EE9  1D03               	skipz
  1002  0EEA  2EEC               	goto	u289_21
  1003  0EEB  2EED               	goto	u289_20
  1004  0EEC                     u289_21:
  1005  0EEC  2F39               	goto	i1l2008
  1006  0EED                     u289_20:
  1007  0EED                     i1l2000:
  1008                           
  1009                           ;Lab9.c: 49:             CCPR_2 = map(ADRESH, 0, 255, 12, 81);
  1010  0EED  01A5               	clrf	map@x0^(0+128)
  1011  0EEE  30FF               	movlw	255
  1012  0EEF  00AB               	movwf	??_isr^(0+128)
  1013  0EF0  082B               	movf	??_isr^(0+128),w
  1014  0EF1  00A6               	movwf	map@x1^(0+128)
  1015  0EF2  300C               	movlw	12
  1016  0EF3  00A7               	movwf	map@y0^(0+128)
  1017  0EF4  3000               	movlw	0
  1018  0EF5  00A8               	movwf	(map@y0^(0+128)+1)
  1019  0EF6  3051               	movlw	81
  1020  0EF7  00A9               	movwf	map@y1^(0+128)
  1021  0EF8  3000               	movlw	0
  1022  0EF9  00AA               	movwf	(map@y1^(0+128)+1)
  1023  0EFA  1283               	bcf	3,5	;RP0=0, select bank0
  1024  0EFB  1303               	bcf	3,6	;RP1=0, select bank0
  1025  0EFC  081E               	movf	30,w	;volatile
  1026  0EFD  120A  158A  25E2  120A  158A  	fcall	_map
  1027  0F02  1683               	bsf	3,5	;RP0=1, select bank1
  1028  0F03  1303               	bcf	3,6	;RP1=0, select bank1
  1029  0F04  0826               	movf	(?_map+1)^(0+128),w
  1030  0F05  00B3               	movwf	(_CCPR_2+1)^(0+128)
  1031  0F06  0825               	movf	?_map^(0+128),w
  1032  0F07  00B2               	movwf	_CCPR_2^(0+128)
  1033  0F08                     i1l2002:
  1034                           
  1035                           ;Lab9.c: 50:             CCPR2L = (uint8_t)(CCPR_2>>2);
  1036  0F08  0833               	movf	(_CCPR_2+1)^(0+128),w
  1037  0F09  00AC               	movwf	(??_isr^(0+128)+1)
  1038  0F0A  0832               	movf	_CCPR_2^(0+128),w
  1039  0F0B  00AB               	movwf	??_isr^(0+128)
  1040  0F0C  1003               	clrc
  1041  0F0D  0CAC               	rrf	(??_isr^(0+128)+1),f
  1042  0F0E  0CAB               	rrf	??_isr^(0+128),f
  1043  0F0F  1003               	clrc
  1044  0F10  0CAC               	rrf	(??_isr^(0+128)+1),f
  1045  0F11  0CAB               	rrf	??_isr^(0+128),f
  1046  0F12  082B               	movf	??_isr^(0+128),w
  1047  0F13  1283               	bcf	3,5	;RP0=0, select bank0
  1048  0F14  1303               	bcf	3,6	;RP1=0, select bank0
  1049  0F15  009B               	movwf	27	;volatile
  1050  0F16                     i1l2004:
  1051                           
  1052                           ;Lab9.c: 51:             CCP2CONbits.DC2B0 = CCPR_2 & 0b01;
  1053  0F16  1683               	bsf	3,5	;RP0=1, select bank1
  1054  0F17  1303               	bcf	3,6	;RP1=0, select bank1
  1055  0F18  0832               	movf	_CCPR_2^(0+128),w
  1056  0F19  3901               	andlw	1
  1057  0F1A  00AB               	movwf	??_isr^(0+128)
  1058  0F1B  0EAB               	swapf	??_isr^(0+128),f
  1059  0F1C  1283               	bcf	3,5	;RP0=0, select bank0
  1060  0F1D  1303               	bcf	3,6	;RP1=0, select bank0
  1061  0F1E  081D               	movf	29,w	;volatile
  1062  0F1F  1683               	bsf	3,5	;RP0=1, select bank1
  1063  0F20  1303               	bcf	3,6	;RP1=0, select bank1
  1064  0F21  062B               	xorwf	??_isr^(0+128),w
  1065  0F22  39EF               	andlw	-17
  1066  0F23  062B               	xorwf	??_isr^(0+128),w
  1067  0F24  1283               	bcf	3,5	;RP0=0, select bank0
  1068  0F25  1303               	bcf	3,6	;RP1=0, select bank0
  1069  0F26  009D               	movwf	29	;volatile
  1070  0F27                     i1l2006:
  1071                           
  1072                           ;Lab9.c: 52:             CCP2CONbits.DC2B1 = CCPR_2 & 0b10;
  1073  0F27  1683               	bsf	3,5	;RP0=1, select bank1
  1074  0F28  1303               	bcf	3,6	;RP1=0, select bank1
  1075  0F29  0832               	movf	_CCPR_2^(0+128),w
  1076  0F2A  3902               	andlw	2
  1077  0F2B  00AB               	movwf	??_isr^(0+128)
  1078  0F2C  0EAB               	swapf	??_isr^(0+128),f
  1079  0F2D  0DAB               	rlf	??_isr^(0+128),f
  1080  0F2E  1283               	bcf	3,5	;RP0=0, select bank0
  1081  0F2F  1303               	bcf	3,6	;RP1=0, select bank0
  1082  0F30  081D               	movf	29,w	;volatile
  1083  0F31  1683               	bsf	3,5	;RP0=1, select bank1
  1084  0F32  1303               	bcf	3,6	;RP1=0, select bank1
  1085  0F33  062B               	xorwf	??_isr^(0+128),w
  1086  0F34  39DF               	andlw	-33
  1087  0F35  062B               	xorwf	??_isr^(0+128),w
  1088  0F36  1283               	bcf	3,5	;RP0=0, select bank0
  1089  0F37  1303               	bcf	3,6	;RP1=0, select bank0
  1090  0F38  009D               	movwf	29	;volatile
  1091  0F39                     i1l2008:
  1092                           
  1093                           ;Lab9.c: 54:         PIR1bits.ADIF = 0;
  1094  0F39  1283               	bcf	3,5	;RP0=0, select bank0
  1095  0F3A  130C               	bcf	12,6	;volatile
  1096  0F3B                     i1l59:
  1097  0F3B  1683               	bsf	3,5	;RP0=1, select bank1
  1098  0F3C  1303               	bcf	3,6	;RP1=0, select bank1
  1099  0F3D  082F               	movf	(??_isr+4)^(0+128),w
  1100  0F3E  00FF               	movwf	btemp+1
  1101  0F3F  082E               	movf	(??_isr+3)^(0+128),w
  1102  0F40  008A               	movwf	10
  1103  0F41  0E2D               	swapf	(??_isr+2)^(0+128),w
  1104  0F42  0083               	movwf	3
  1105  0F43  0EFE               	swapf	btemp,f
  1106  0F44  0E7E               	swapf	btemp,w
  1107  0F45  0009               	retfie
  1108  0F46                     __end_of_isr:
  1109                           
  1110                           	psect	intentry
  1111  0004                     __pintentry:	
  1112                           ;incstack = 0
  1113                           ; Regs used in _isr: [wreg+status,2+status,0+btemp+1+pclath+cstack]
  1114                           
  1115  0004                     interrupt_function:
  1116  007E                     saved_w	set	btemp
  1117  0004  00FE               	movwf	btemp
  1118  0005  0E03               	swapf	3,w
  1119  0006  1683               	bsf	3,5	;RP0=1, select bank1
  1120  0007  1303               	bcf	3,6	;RP1=0, select bank1
  1121  0008  00AD               	movwf	(??_isr+2)^(0+128)
  1122  0009  080A               	movf	10,w
  1123  000A  00AE               	movwf	(??_isr+3)^(0+128)
  1124  000B  087F               	movf	btemp+1,w
  1125  000C  00AF               	movwf	(??_isr+4)^(0+128)
  1126  000D  120A  158A  2E94   	ljmp	_isr
  1127                           
  1128                           	psect	text3
  1129  0DE2                     __ptext3:	
  1130 ;; *************** function _map *****************
  1131 ;; Defined at:
  1132 ;;		line 132 in file "Lab9.c"
  1133 ;; Parameters:    Size  Location     Type
  1134 ;;  x               1    wreg     unsigned char 
  1135 ;;  x0              1    5[BANK1 ] unsigned char 
  1136 ;;  x1              1    6[BANK1 ] unsigned char 
  1137 ;;  y0              2    7[BANK1 ] unsigned short 
  1138 ;;  y1              2    9[BANK1 ] unsigned short 
  1139 ;; Auto vars:     Size  Location     Type
  1140 ;;  x               1   78[BANK0 ] unsigned char 
  1141 ;; Return value:  Size  Location     Type
  1142 ;;                  2    5[BANK1 ] unsigned short 
  1143 ;; Registers used:
  1144 ;;		wreg, status,2, status,0, btemp+1, pclath, cstack
  1145 ;; Tracked objects:
  1146 ;;		On entry : 0/0
  1147 ;;		On exit  : 0/0
  1148 ;;		Unchanged: 0/0
  1149 ;; Data sizes:     COMMON   BANK0   BANK1   BANK3   BANK2
  1150 ;;      Params:         0       0       6       0       0
  1151 ;;      Locals:         0       1       0       0       0
  1152 ;;      Temps:          0       0       0       0       0
  1153 ;;      Totals:         0       1       6       0       0
  1154 ;;Total ram usage:        7 bytes
  1155 ;; Hardware stack levels used: 1
  1156 ;; Hardware stack levels required when called: 2
  1157 ;; This function calls:
  1158 ;;		___fladd
  1159 ;;		___fldiv
  1160 ;;		___flmul
  1161 ;;		___fltol
  1162 ;;		___xxtofl
  1163 ;; This function is called by:
  1164 ;;		_isr
  1165 ;; This function uses a non-reentrant model
  1166 ;;
  1167                           
  1168  0DE2                     _map:	
  1169                           ;psect for function _map
  1170                           
  1171                           
  1172                           ;incstack = 0
  1173                           ; Regs used in _map: [wreg+status,2+status,0+btemp+1+pclath+cstack]
  1174                           ;map@x stored from wreg
  1175  0DE2  1283               	bcf	3,5	;RP0=0, select bank0
  1176  0DE3  1303               	bcf	3,6	;RP1=0, select bank0
  1177  0DE4  00EE               	movwf	map@x
  1178  0DE5                     i1l1920:
  1179                           
  1180                           ;Lab9.c: 132: unsigned short map(uint8_t x, uint8_t x0, uint8_t x1,;Lab9.c: 133:        
      +                               unsigned short y0, unsigned short y1){;Lab9.c: 134:     return (unsigned short)(y0+
      +                          ((float)(y1-y0)/(x1-x0))*(x-x0));
  1181  0DE5  1683               	bsf	3,5	;RP0=1, select bank1
  1182  0DE6  1303               	bcf	3,6	;RP1=0, select bank1
  1183  0DE7  0827               	movf	map@y0^(0+128),w
  1184  0DE8  00F0               	movwf	___xxtofl@val
  1185  0DE9  0828               	movf	(map@y0+1)^(0+128),w
  1186  0DEA  00F1               	movwf	___xxtofl@val+1
  1187  0DEB  01F2               	clrf	___xxtofl@val+2
  1188  0DEC  01F3               	clrf	___xxtofl@val+3
  1189  0DED  3000               	movlw	0
  1190  0DEE  120A  158A  2746  120A  158A  	fcall	___xxtofl
  1191  0DF3  0873               	movf	?___xxtofl+3,w
  1192  0DF4  1283               	bcf	3,5	;RP0=0, select bank0
  1193  0DF5  1303               	bcf	3,6	;RP1=0, select bank0
  1194  0DF6  00DB               	movwf	___fladd@a+3
  1195  0DF7  0872               	movf	?___xxtofl+2,w
  1196  0DF8  00DA               	movwf	___fladd@a+2
  1197  0DF9  0871               	movf	?___xxtofl+1,w
  1198  0DFA  00D9               	movwf	___fladd@a+1
  1199  0DFB  0870               	movf	?___xxtofl,w
  1200  0DFC  00D8               	movwf	___fladd@a
  1201  0DFD  1683               	bsf	3,5	;RP0=1, select bank1
  1202  0DFE  1303               	bcf	3,6	;RP1=0, select bank1
  1203  0DFF  0827               	movf	map@y0^(0+128),w
  1204  0E00  0229               	subwf	map@y1^(0+128),w
  1205  0E01  00F0               	movwf	___xxtofl@val
  1206  0E02  0828               	movf	(map@y0+1)^(0+128),w
  1207  0E03  1C03               	skipc
  1208  0E04  0A28               	incf	(map@y0+1)^(0+128),w
  1209  0E05  022A               	subwf	(map@y1+1)^(0+128),w
  1210  0E06  00F1               	movwf	___xxtofl@val+1
  1211  0E07  01F2               	clrf	___xxtofl@val+2
  1212  0E08  01F3               	clrf	___xxtofl@val+3
  1213  0E09  3000               	movlw	0
  1214  0E0A  120A  158A  2746  120A  158A  	fcall	___xxtofl
  1215  0E0F  0873               	movf	?___xxtofl+3,w
  1216  0E10  1283               	bcf	3,5	;RP0=0, select bank0
  1217  0E11  1303               	bcf	3,6	;RP1=0, select bank0
  1218  0E12  00A7               	movwf	___fldiv@b+3
  1219  0E13  0872               	movf	?___xxtofl+2,w
  1220  0E14  00A6               	movwf	___fldiv@b+2
  1221  0E15  0871               	movf	?___xxtofl+1,w
  1222  0E16  00A5               	movwf	___fldiv@b+1
  1223  0E17  0870               	movf	?___xxtofl,w
  1224  0E18  00A4               	movwf	___fldiv@b
  1225  0E19  1683               	bsf	3,5	;RP0=1, select bank1
  1226  0E1A  1303               	bcf	3,6	;RP1=0, select bank1
  1227  0E1B  0825               	movf	map@x0^(0+128),w
  1228  0E1C  0226               	subwf	map@x1^(0+128),w
  1229  0E1D  00F0               	movwf	___xxtofl@val
  1230  0E1E  01F1               	clrf	___xxtofl@val+1
  1231  0E1F  1C03               	skipc
  1232  0E20  03F1               	decf	___xxtofl@val+1,f
  1233  0E21  01F2               	clrf	___xxtofl@val+2
  1234  0E22  1BF1               	btfsc	___xxtofl@val+1,7
  1235  0E23  03F2               	decf	___xxtofl@val+2,f
  1236  0E24  0872               	movf	___xxtofl@val+2,w
  1237  0E25  00F3               	movwf	___xxtofl@val+3
  1238  0E26  3001               	movlw	1
  1239  0E27  120A  158A  2746  120A  158A  	fcall	___xxtofl
  1240  0E2C  0873               	movf	?___xxtofl+3,w
  1241  0E2D  1283               	bcf	3,5	;RP0=0, select bank0
  1242  0E2E  1303               	bcf	3,6	;RP1=0, select bank0
  1243  0E2F  00A3               	movwf	___fldiv@a+3
  1244  0E30  0872               	movf	?___xxtofl+2,w
  1245  0E31  00A2               	movwf	___fldiv@a+2
  1246  0E32  0871               	movf	?___xxtofl+1,w
  1247  0E33  00A1               	movwf	___fldiv@a+1
  1248  0E34  0870               	movf	?___xxtofl,w
  1249  0E35  00A0               	movwf	___fldiv@a
  1250  0E36  120A  118A  2606  120A  158A  	fcall	___fldiv
  1251  0E3B  1283               	bcf	3,5	;RP0=0, select bank0
  1252  0E3C  1303               	bcf	3,6	;RP1=0, select bank0
  1253  0E3D  0823               	movf	?___fldiv+3,w
  1254  0E3E  00C1               	movwf	___flmul@a+3
  1255  0E3F  0822               	movf	?___fldiv+2,w
  1256  0E40  00C0               	movwf	___flmul@a+2
  1257  0E41  0821               	movf	?___fldiv+1,w
  1258  0E42  00BF               	movwf	___flmul@a+1
  1259  0E43  0820               	movf	?___fldiv,w
  1260  0E44  00BE               	movwf	___flmul@a
  1261  0E45  1683               	bsf	3,5	;RP0=1, select bank1
  1262  0E46  1303               	bcf	3,6	;RP1=0, select bank1
  1263  0E47  0825               	movf	map@x0^(0+128),w
  1264  0E48  1283               	bcf	3,5	;RP0=0, select bank0
  1265  0E49  1303               	bcf	3,6	;RP1=0, select bank0
  1266  0E4A  026E               	subwf	map@x,w
  1267  0E4B  00F0               	movwf	___xxtofl@val
  1268  0E4C  01F1               	clrf	___xxtofl@val+1
  1269  0E4D  1C03               	skipc
  1270  0E4E  03F1               	decf	___xxtofl@val+1,f
  1271  0E4F  01F2               	clrf	___xxtofl@val+2
  1272  0E50  1BF1               	btfsc	___xxtofl@val+1,7
  1273  0E51  03F2               	decf	___xxtofl@val+2,f
  1274  0E52  0872               	movf	___xxtofl@val+2,w
  1275  0E53  00F3               	movwf	___xxtofl@val+3
  1276  0E54  3001               	movlw	1
  1277  0E55  120A  158A  2746  120A  158A  	fcall	___xxtofl
  1278  0E5A  0873               	movf	?___xxtofl+3,w
  1279  0E5B  1283               	bcf	3,5	;RP0=0, select bank0
  1280  0E5C  1303               	bcf	3,6	;RP1=0, select bank0
  1281  0E5D  00BD               	movwf	___flmul@b+3
  1282  0E5E  0872               	movf	?___xxtofl+2,w
  1283  0E5F  00BC               	movwf	___flmul@b+2
  1284  0E60  0871               	movf	?___xxtofl+1,w
  1285  0E61  00BB               	movwf	___flmul@b+1
  1286  0E62  0870               	movf	?___xxtofl,w
  1287  0E63  00BA               	movwf	___flmul@b
  1288  0E64  120A  118A  201D  120A  158A  	fcall	___flmul
  1289  0E69  1283               	bcf	3,5	;RP0=0, select bank0
  1290  0E6A  1303               	bcf	3,6	;RP1=0, select bank0
  1291  0E6B  083D               	movf	?___flmul+3,w
  1292  0E6C  00D7               	movwf	___fladd@b+3
  1293  0E6D  083C               	movf	?___flmul+2,w
  1294  0E6E  00D6               	movwf	___fladd@b+2
  1295  0E6F  083B               	movf	?___flmul+1,w
  1296  0E70  00D5               	movwf	___fladd@b+1
  1297  0E71  083A               	movf	?___flmul,w
  1298  0E72  00D4               	movwf	___fladd@b
  1299  0E73  120A  118A  237E  120A  158A  	fcall	___fladd
  1300  0E78  1283               	bcf	3,5	;RP0=0, select bank0
  1301  0E79  1303               	bcf	3,6	;RP1=0, select bank0
  1302  0E7A  0857               	movf	?___fladd+3,w
  1303  0E7B  00EB               	movwf	___fltol@f1+3
  1304  0E7C  0856               	movf	?___fladd+2,w
  1305  0E7D  00EA               	movwf	___fltol@f1+2
  1306  0E7E  0855               	movf	?___fladd+1,w
  1307  0E7F  00E9               	movwf	___fltol@f1+1
  1308  0E80  0854               	movf	?___fladd,w
  1309  0E81  00E8               	movwf	___fltol@f1
  1310  0E82  120A  158A  2546  120A  158A  	fcall	___fltol
  1311  0E87  1283               	bcf	3,5	;RP0=0, select bank0
  1312  0E88  1303               	bcf	3,6	;RP1=0, select bank0
  1313  0E89  0869               	movf	?___fltol+1,w
  1314  0E8A  1683               	bsf	3,5	;RP0=1, select bank1
  1315  0E8B  1303               	bcf	3,6	;RP1=0, select bank1
  1316  0E8C  00A6               	movwf	(?_map+1)^(0+128)
  1317  0E8D  1283               	bcf	3,5	;RP0=0, select bank0
  1318  0E8E  1303               	bcf	3,6	;RP1=0, select bank0
  1319  0E8F  0868               	movf	?___fltol,w
  1320  0E90  1683               	bsf	3,5	;RP0=1, select bank1
  1321  0E91  1303               	bcf	3,6	;RP1=0, select bank1
  1322  0E92  00A5               	movwf	?_map^(0+128)
  1323  0E93                     i1l80:
  1324  0E93  0008               	return
  1325  0E94                     __end_of_map:
  1326                           
  1327                           	psect	text4
  1328  0F46                     __ptext4:	
  1329 ;; *************** function ___xxtofl *****************
  1330 ;; Defined at:
  1331 ;;		line 10 in file "C:\Program Files\Microchip\xc8\v2.35\pic\sources\c90\common\xxtofl.c"
  1332 ;; Parameters:    Size  Location     Type
  1333 ;;  sign            1    wreg     unsigned char 
  1334 ;;  val             4    0[COMMON] long 
  1335 ;; Auto vars:     Size  Location     Type
  1336 ;;  sign            1    8[COMMON] unsigned char 
  1337 ;;  arg             4   10[COMMON] unsigned long 
  1338 ;;  exp             1    9[COMMON] unsigned char 
  1339 ;; Return value:  Size  Location     Type
  1340 ;;                  4    0[COMMON] unsigned char 
  1341 ;; Registers used:
  1342 ;;		wreg, status,2, status,0
  1343 ;; Tracked objects:
  1344 ;;		On entry : 0/0
  1345 ;;		On exit  : 0/0
  1346 ;;		Unchanged: 0/0
  1347 ;; Data sizes:     COMMON   BANK0   BANK1   BANK3   BANK2
  1348 ;;      Params:         4       0       0       0       0
  1349 ;;      Locals:         6       0       0       0       0
  1350 ;;      Temps:          4       0       0       0       0
  1351 ;;      Totals:        14       0       0       0       0
  1352 ;;Total ram usage:       14 bytes
  1353 ;; Hardware stack levels used: 1
  1354 ;; This function calls:
  1355 ;;		Nothing
  1356 ;; This function is called by:
  1357 ;;		_map
  1358 ;; This function uses a non-reentrant model
  1359 ;;
  1360                           
  1361  0F46                     ___xxtofl:	
  1362                           ;psect for function ___xxtofl
  1363                           
  1364                           
  1365                           ;incstack = 0
  1366                           ; Regs used in ___xxtofl: [wreg+status,2+status,0]
  1367                           ;___xxtofl@sign stored from wreg
  1368  0F46  00F8               	movwf	___xxtofl@sign
  1369  0F47                     i1l1876:
  1370  0F47  0878               	movf	___xxtofl@sign,w
  1371  0F48  1903               	btfsc	3,2
  1372  0F49  2F4B               	goto	u272_21
  1373  0F4A  2F4C               	goto	u272_20
  1374  0F4B                     u272_21:
  1375  0F4B  2F60               	goto	i1l1882
  1376  0F4C                     u272_20:
  1377  0F4C                     i1l1878:
  1378  0F4C  1FF3               	btfss	___xxtofl@val+3,7
  1379  0F4D  2F4F               	goto	u273_21
  1380  0F4E  2F50               	goto	u273_20
  1381  0F4F                     u273_21:
  1382  0F4F  2F60               	goto	i1l1882
  1383  0F50                     u273_20:
  1384  0F50                     i1l1880:
  1385  0F50  0970               	comf	___xxtofl@val,w
  1386  0F51  00FA               	movwf	___xxtofl@arg
  1387  0F52  0971               	comf	___xxtofl@val+1,w
  1388  0F53  00FB               	movwf	___xxtofl@arg+1
  1389  0F54  0972               	comf	___xxtofl@val+2,w
  1390  0F55  00FC               	movwf	___xxtofl@arg+2
  1391  0F56  0973               	comf	___xxtofl@val+3,w
  1392  0F57  00FD               	movwf	___xxtofl@arg+3
  1393  0F58  0AFA               	incf	___xxtofl@arg,f
  1394  0F59  1903               	skipnz
  1395  0F5A  0AFB               	incf	___xxtofl@arg+1,f
  1396  0F5B  1903               	skipnz
  1397  0F5C  0AFC               	incf	___xxtofl@arg+2,f
  1398  0F5D  1903               	skipnz
  1399  0F5E  0AFD               	incf	___xxtofl@arg+3,f
  1400  0F5F  2F68               	goto	i1l599
  1401  0F60                     i1l1882:
  1402  0F60  0873               	movf	___xxtofl@val+3,w
  1403  0F61  00FD               	movwf	___xxtofl@arg+3
  1404  0F62  0872               	movf	___xxtofl@val+2,w
  1405  0F63  00FC               	movwf	___xxtofl@arg+2
  1406  0F64  0871               	movf	___xxtofl@val+1,w
  1407  0F65  00FB               	movwf	___xxtofl@arg+1
  1408  0F66  0870               	movf	___xxtofl@val,w
  1409  0F67  00FA               	movwf	___xxtofl@arg
  1410  0F68                     i1l599:
  1411  0F68  0873               	movf	___xxtofl@val+3,w
  1412  0F69  0472               	iorwf	___xxtofl@val+2,w
  1413  0F6A  0471               	iorwf	___xxtofl@val+1,w
  1414  0F6B  0470               	iorwf	___xxtofl@val,w
  1415  0F6C  1D03               	skipz
  1416  0F6D  2F6F               	goto	u274_21
  1417  0F6E  2F70               	goto	u274_20
  1418  0F6F                     u274_21:
  1419  0F6F  2F79               	goto	i1l1888
  1420  0F70                     u274_20:
  1421  0F70                     i1l1884:
  1422  0F70  3000               	movlw	0
  1423  0F71  00F3               	movwf	?___xxtofl+3
  1424  0F72  3000               	movlw	0
  1425  0F73  00F2               	movwf	?___xxtofl+2
  1426  0F74  3000               	movlw	0
  1427  0F75  00F1               	movwf	?___xxtofl+1
  1428  0F76  3000               	movlw	0
  1429  0F77  00F0               	movwf	?___xxtofl
  1430  0F78  2FFF               	goto	i1l601
  1431  0F79                     i1l1888:
  1432  0F79  3096               	movlw	150
  1433  0F7A  00F4               	movwf	??___xxtofl
  1434  0F7B  0874               	movf	??___xxtofl,w
  1435  0F7C  00F9               	movwf	___xxtofl@exp
  1436  0F7D  2F8B               	goto	i1l1892
  1437  0F7E                     i1l1890:
  1438  0F7E  3001               	movlw	1
  1439  0F7F  00F4               	movwf	??___xxtofl
  1440  0F80  0874               	movf	??___xxtofl,w
  1441  0F81  07F9               	addwf	___xxtofl@exp,f
  1442  0F82  3001               	movlw	1
  1443  0F83                     u275_25:
  1444  0F83  1003               	clrc
  1445  0F84  0CFD               	rrf	___xxtofl@arg+3,f
  1446  0F85  0CFC               	rrf	___xxtofl@arg+2,f
  1447  0F86  0CFB               	rrf	___xxtofl@arg+1,f
  1448  0F87  0CFA               	rrf	___xxtofl@arg,f
  1449  0F88  3EFF               	addlw	-1
  1450  0F89  1D03               	skipz
  1451  0F8A  2F83               	goto	u275_25
  1452  0F8B                     i1l1892:
  1453  0F8B  30FE               	movlw	254
  1454  0F8C  057D               	andwf	___xxtofl@arg+3,w
  1455  0F8D  1D03               	btfss	3,2
  1456  0F8E  2F90               	goto	u276_21
  1457  0F8F  2F91               	goto	u276_20
  1458  0F90                     u276_21:
  1459  0F90  2F7E               	goto	i1l1890
  1460  0F91                     u276_20:
  1461  0F91  2FAD               	goto	i1l605
  1462  0F92                     i1l1894:
  1463  0F92  3001               	movlw	1
  1464  0F93  00F4               	movwf	??___xxtofl
  1465  0F94  0874               	movf	??___xxtofl,w
  1466  0F95  07F9               	addwf	___xxtofl@exp,f
  1467  0F96                     i1l1896:
  1468  0F96  3001               	movlw	1
  1469  0F97  07FA               	addwf	___xxtofl@arg,f
  1470  0F98  3000               	movlw	0
  1471  0F99  1803               	skipnc
  1472  0F9A  3001               	movlw	1
  1473  0F9B  07FB               	addwf	___xxtofl@arg+1,f
  1474  0F9C  3000               	movlw	0
  1475  0F9D  1803               	skipnc
  1476  0F9E  3001               	movlw	1
  1477  0F9F  07FC               	addwf	___xxtofl@arg+2,f
  1478  0FA0  3000               	movlw	0
  1479  0FA1  1803               	skipnc
  1480  0FA2  3001               	movlw	1
  1481  0FA3  07FD               	addwf	___xxtofl@arg+3,f
  1482  0FA4                     i1l1898:
  1483  0FA4  3001               	movlw	1
  1484  0FA5                     u277_25:
  1485  0FA5  1003               	clrc
  1486  0FA6  0CFD               	rrf	___xxtofl@arg+3,f
  1487  0FA7  0CFC               	rrf	___xxtofl@arg+2,f
  1488  0FA8  0CFB               	rrf	___xxtofl@arg+1,f
  1489  0FA9  0CFA               	rrf	___xxtofl@arg,f
  1490  0FAA  3EFF               	addlw	-1
  1491  0FAB  1D03               	skipz
  1492  0FAC  2FA5               	goto	u277_25
  1493  0FAD                     i1l605:
  1494  0FAD  30FF               	movlw	255
  1495  0FAE  057D               	andwf	___xxtofl@arg+3,w
  1496  0FAF  1D03               	btfss	3,2
  1497  0FB0  2FB2               	goto	u278_21
  1498  0FB1  2FB3               	goto	u278_20
  1499  0FB2                     u278_21:
  1500  0FB2  2F92               	goto	i1l1894
  1501  0FB3                     u278_20:
  1502  0FB3  2FBF               	goto	i1l1902
  1503  0FB4                     i1l1900:
  1504  0FB4  3001               	movlw	1
  1505  0FB5  02F9               	subwf	___xxtofl@exp,f
  1506  0FB6  3001               	movlw	1
  1507  0FB7  00F4               	movwf	??___xxtofl
  1508  0FB8                     u279_25:
  1509  0FB8  1003               	clrc
  1510  0FB9  0DFA               	rlf	___xxtofl@arg,f
  1511  0FBA  0DFB               	rlf	___xxtofl@arg+1,f
  1512  0FBB  0DFC               	rlf	___xxtofl@arg+2,f
  1513  0FBC  0DFD               	rlf	___xxtofl@arg+3,f
  1514  0FBD  0BF4               	decfsz	??___xxtofl,f
  1515  0FBE  2FB8               	goto	u279_25
  1516  0FBF                     i1l1902:
  1517  0FBF  1BFC               	btfsc	___xxtofl@arg+2,7
  1518  0FC0  2FC2               	goto	u280_21
  1519  0FC1  2FC3               	goto	u280_20
  1520  0FC2                     u280_21:
  1521  0FC2  2FC9               	goto	i1l612
  1522  0FC3                     u280_20:
  1523  0FC3                     i1l1904:
  1524  0FC3  3002               	movlw	2
  1525  0FC4  0279               	subwf	___xxtofl@exp,w
  1526  0FC5  1803               	skipnc
  1527  0FC6  2FC8               	goto	u281_21
  1528  0FC7  2FC9               	goto	u281_20
  1529  0FC8                     u281_21:
  1530  0FC8  2FB4               	goto	i1l1900
  1531  0FC9                     u281_20:
  1532  0FC9                     i1l612:
  1533  0FC9  1879               	btfsc	___xxtofl@exp,0
  1534  0FCA  2FCC               	goto	u282_21
  1535  0FCB  2FCD               	goto	u282_20
  1536  0FCC                     u282_21:
  1537  0FCC  2FD5               	goto	i1l613
  1538  0FCD                     u282_20:
  1539  0FCD                     i1l1906:
  1540  0FCD  30FF               	movlw	255
  1541  0FCE  05FA               	andwf	___xxtofl@arg,f
  1542  0FCF  30FF               	movlw	255
  1543  0FD0  05FB               	andwf	___xxtofl@arg+1,f
  1544  0FD1  307F               	movlw	127
  1545  0FD2  05FC               	andwf	___xxtofl@arg+2,f
  1546  0FD3  30FF               	movlw	255
  1547  0FD4  05FD               	andwf	___xxtofl@arg+3,f
  1548  0FD5                     i1l613:
  1549  0FD5  1003               	clrc
  1550  0FD6  0CF9               	rrf	___xxtofl@exp,f
  1551  0FD7                     i1l1908:
  1552  0FD7  0879               	movf	___xxtofl@exp,w
  1553  0FD8  00F4               	movwf	??___xxtofl
  1554  0FD9  01F5               	clrf	??___xxtofl+1
  1555  0FDA  01F6               	clrf	??___xxtofl+2
  1556  0FDB  01F7               	clrf	??___xxtofl+3
  1557  0FDC  3018               	movlw	24
  1558  0FDD                     u283_25:
  1559  0FDD  1003               	clrc
  1560  0FDE  0DF4               	rlf	??___xxtofl,f
  1561  0FDF  0DF5               	rlf	??___xxtofl+1,f
  1562  0FE0  0DF6               	rlf	??___xxtofl+2,f
  1563  0FE1  0DF7               	rlf	??___xxtofl+3,f
  1564  0FE2                     u283_20:
  1565  0FE2  3EFF               	addlw	-1
  1566  0FE3  1D03               	skipz
  1567  0FE4  2FDD               	goto	u283_25
  1568  0FE5  0874               	movf	??___xxtofl,w
  1569  0FE6  04FA               	iorwf	___xxtofl@arg,f
  1570  0FE7  0875               	movf	??___xxtofl+1,w
  1571  0FE8  04FB               	iorwf	___xxtofl@arg+1,f
  1572  0FE9  0876               	movf	??___xxtofl+2,w
  1573  0FEA  04FC               	iorwf	___xxtofl@arg+2,f
  1574  0FEB  0877               	movf	??___xxtofl+3,w
  1575  0FEC  04FD               	iorwf	___xxtofl@arg+3,f
  1576  0FED                     i1l1910:
  1577  0FED  0878               	movf	___xxtofl@sign,w
  1578  0FEE  1903               	btfsc	3,2
  1579  0FEF  2FF1               	goto	u284_21
  1580  0FF0  2FF2               	goto	u284_20
  1581  0FF1                     u284_21:
  1582  0FF1  2FF7               	goto	i1l1916
  1583  0FF2                     u284_20:
  1584  0FF2                     i1l1912:
  1585  0FF2  1FF3               	btfss	___xxtofl@val+3,7
  1586  0FF3  2FF5               	goto	u285_21
  1587  0FF4  2FF6               	goto	u285_20
  1588  0FF5                     u285_21:
  1589  0FF5  2FF7               	goto	i1l1916
  1590  0FF6                     u285_20:
  1591  0FF6                     i1l1914:
  1592  0FF6  17FD               	bsf	___xxtofl@arg+3,7
  1593  0FF7                     i1l1916:
  1594  0FF7  087D               	movf	___xxtofl@arg+3,w
  1595  0FF8  00F3               	movwf	?___xxtofl+3
  1596  0FF9  087C               	movf	___xxtofl@arg+2,w
  1597  0FFA  00F2               	movwf	?___xxtofl+2
  1598  0FFB  087B               	movf	___xxtofl@arg+1,w
  1599  0FFC  00F1               	movwf	?___xxtofl+1
  1600  0FFD  087A               	movf	___xxtofl@arg,w
  1601  0FFE  00F0               	movwf	?___xxtofl
  1602  0FFF                     i1l601:
  1603  0FFF  0008               	return
  1604  1000                     __end_of___xxtofl:
  1605                           
  1606                           	psect	text5
  1607  0D46                     __ptext5:	
  1608 ;; *************** function ___fltol *****************
  1609 ;; Defined at:
  1610 ;;		line 43 in file "C:\Program Files\Microchip\xc8\v2.35\pic\sources\c90\common\fltol.c"
  1611 ;; Parameters:    Size  Location     Type
  1612 ;;  f1              4   72[BANK0 ] unsigned char 
  1613 ;; Auto vars:     Size  Location     Type
  1614 ;;  exp1            1   77[BANK0 ] unsigned char 
  1615 ;;  sign1           1   76[BANK0 ] unsigned char 
  1616 ;; Return value:  Size  Location     Type
  1617 ;;                  4   72[BANK0 ] long 
  1618 ;; Registers used:
  1619 ;;		wreg, status,2, status,0
  1620 ;; Tracked objects:
  1621 ;;		On entry : 0/0
  1622 ;;		On exit  : 0/0
  1623 ;;		Unchanged: 0/0
  1624 ;; Data sizes:     COMMON   BANK0   BANK1   BANK3   BANK2
  1625 ;;      Params:         0       4       0       0       0
  1626 ;;      Locals:         0       2       0       0       0
  1627 ;;      Temps:          0       0       5       0       0
  1628 ;;      Totals:         0       6       5       0       0
  1629 ;;Total ram usage:       11 bytes
  1630 ;; Hardware stack levels used: 1
  1631 ;; This function calls:
  1632 ;;		Nothing
  1633 ;; This function is called by:
  1634 ;;		_map
  1635 ;; This function uses a non-reentrant model
  1636 ;;
  1637                           
  1638  0D46                     ___fltol:	
  1639                           ;psect for function ___fltol
  1640                           
  1641  0D46                     i1l1364:	
  1642                           ;incstack = 0
  1643                           ; Regs used in ___fltol: [wreg+status,2+status,0]
  1644                           
  1645  0D46  1003               	clrc
  1646  0D47  1283               	bcf	3,5	;RP0=0, select bank0
  1647  0D48  1303               	bcf	3,6	;RP1=0, select bank0
  1648  0D49  0D6A               	rlf	___fltol@f1+2,w
  1649  0D4A  0D6B               	rlf	___fltol@f1+3,w
  1650  0D4B  1683               	bsf	3,5	;RP0=1, select bank1
  1651  0D4C  1303               	bcf	3,6	;RP1=0, select bank1
  1652  0D4D  00A0               	movwf	??___fltol^(0+128)
  1653  0D4E  0820               	movf	??___fltol^(0+128),w
  1654  0D4F  1283               	bcf	3,5	;RP0=0, select bank0
  1655  0D50  1303               	bcf	3,6	;RP1=0, select bank0
  1656  0D51  00ED               	movwf	___fltol@exp1
  1657  0D52  086D               	movf	___fltol@exp1,w
  1658  0D53  1D03               	btfss	3,2
  1659  0D54  2D56               	goto	u150_21
  1660  0D55  2D57               	goto	u150_20
  1661  0D56                     u150_21:
  1662  0D56  2D60               	goto	i1l1370
  1663  0D57                     u150_20:
  1664  0D57                     i1l1366:
  1665  0D57  3000               	movlw	0
  1666  0D58  00EB               	movwf	?___fltol+3
  1667  0D59  3000               	movlw	0
  1668  0D5A  00EA               	movwf	?___fltol+2
  1669  0D5B  3000               	movlw	0
  1670  0D5C  00E9               	movwf	?___fltol+1
  1671  0D5D  3000               	movlw	0
  1672  0D5E  00E8               	movwf	?___fltol
  1673  0D5F  2DE1               	goto	i1l352
  1674  0D60                     i1l1370:
  1675  0D60  0868               	movf	___fltol@f1,w
  1676  0D61  1683               	bsf	3,5	;RP0=1, select bank1
  1677  0D62  1303               	bcf	3,6	;RP1=0, select bank1
  1678  0D63  00A0               	movwf	??___fltol^(0+128)
  1679  0D64  1283               	bcf	3,5	;RP0=0, select bank0
  1680  0D65  1303               	bcf	3,6	;RP1=0, select bank0
  1681  0D66  0869               	movf	___fltol@f1+1,w
  1682  0D67  1683               	bsf	3,5	;RP0=1, select bank1
  1683  0D68  1303               	bcf	3,6	;RP1=0, select bank1
  1684  0D69  00A1               	movwf	(??___fltol^(0+128)+1)
  1685  0D6A  1283               	bcf	3,5	;RP0=0, select bank0
  1686  0D6B  1303               	bcf	3,6	;RP1=0, select bank0
  1687  0D6C  086A               	movf	___fltol@f1+2,w
  1688  0D6D  1683               	bsf	3,5	;RP0=1, select bank1
  1689  0D6E  1303               	bcf	3,6	;RP1=0, select bank1
  1690  0D6F  00A2               	movwf	(??___fltol^(0+128)+2)
  1691  0D70  1283               	bcf	3,5	;RP0=0, select bank0
  1692  0D71  1303               	bcf	3,6	;RP1=0, select bank0
  1693  0D72  086B               	movf	___fltol@f1+3,w
  1694  0D73  1683               	bsf	3,5	;RP0=1, select bank1
  1695  0D74  1303               	bcf	3,6	;RP1=0, select bank1
  1696  0D75  00A3               	movwf	(??___fltol^(0+128)+3)
  1697  0D76  301F               	movlw	31
  1698  0D77                     u151_25:
  1699  0D77  1003               	clrc
  1700  0D78  0CA3               	rrf	(??___fltol^(0+128)+3),f
  1701  0D79  0CA2               	rrf	(??___fltol^(0+128)+2),f
  1702  0D7A  0CA1               	rrf	(??___fltol^(0+128)+1),f
  1703  0D7B  0CA0               	rrf	??___fltol^(0+128),f
  1704  0D7C                     u151_20:
  1705  0D7C  3EFF               	addlw	-1
  1706  0D7D  1D03               	skipz
  1707  0D7E  2D77               	goto	u151_25
  1708  0D7F  0820               	movf	??___fltol^(0+128),w
  1709  0D80  00A4               	movwf	(??___fltol+4)^(0+128)
  1710  0D81  0824               	movf	(??___fltol+4)^(0+128),w
  1711  0D82  1283               	bcf	3,5	;RP0=0, select bank0
  1712  0D83  1303               	bcf	3,6	;RP1=0, select bank0
  1713  0D84  00EC               	movwf	___fltol@sign1
  1714  0D85                     i1l1372:
  1715  0D85  17EA               	bsf	___fltol@f1+2,7
  1716  0D86                     i1l1374:
  1717  0D86  30FF               	movlw	255
  1718  0D87  05E8               	andwf	___fltol@f1,f
  1719  0D88  30FF               	movlw	255
  1720  0D89  05E9               	andwf	___fltol@f1+1,f
  1721  0D8A  30FF               	movlw	255
  1722  0D8B  05EA               	andwf	___fltol@f1+2,f
  1723  0D8C  3000               	movlw	0
  1724  0D8D  05EB               	andwf	___fltol@f1+3,f
  1725  0D8E                     i1l1376:
  1726  0D8E  3096               	movlw	150
  1727  0D8F  02ED               	subwf	___fltol@exp1,f
  1728  0D90                     i1l1378:
  1729  0D90  1FED               	btfss	___fltol@exp1,7
  1730  0D91  2D93               	goto	u152_21
  1731  0D92  2D94               	goto	u152_20
  1732  0D93                     u152_21:
  1733  0D93  2DB2               	goto	i1l1388
  1734  0D94                     u152_20:
  1735  0D94                     i1l1380:
  1736  0D94  086D               	movf	___fltol@exp1,w
  1737  0D95  3A80               	xorlw	128
  1738  0D96  3E97               	addlw	151
  1739  0D97  1803               	skipnc
  1740  0D98  2D9A               	goto	u153_21
  1741  0D99  2D9B               	goto	u153_20
  1742  0D9A                     u153_21:
  1743  0D9A  2D9C               	goto	i1l1386
  1744  0D9B                     u153_20:
  1745  0D9B  2D57               	goto	i1l1366
  1746  0D9C                     i1l1386:
  1747  0D9C  3001               	movlw	1
  1748  0D9D                     u154_25:
  1749  0D9D  1003               	clrc
  1750  0D9E  0CEB               	rrf	___fltol@f1+3,f
  1751  0D9F  0CEA               	rrf	___fltol@f1+2,f
  1752  0DA0  0CE9               	rrf	___fltol@f1+1,f
  1753  0DA1  0CE8               	rrf	___fltol@f1,f
  1754  0DA2  3EFF               	addlw	-1
  1755  0DA3  1D03               	skipz
  1756  0DA4  2D9D               	goto	u154_25
  1757  0DA5  3001               	movlw	1
  1758  0DA6  1683               	bsf	3,5	;RP0=1, select bank1
  1759  0DA7  1303               	bcf	3,6	;RP1=0, select bank1
  1760  0DA8  00A0               	movwf	??___fltol^(0+128)
  1761  0DA9  0820               	movf	??___fltol^(0+128),w
  1762  0DAA  1283               	bcf	3,5	;RP0=0, select bank0
  1763  0DAB  1303               	bcf	3,6	;RP1=0, select bank0
  1764  0DAC  07ED               	addwf	___fltol@exp1,f
  1765  0DAD  1D03               	btfss	3,2
  1766  0DAE  2DB0               	goto	u155_21
  1767  0DAF  2DB1               	goto	u155_20
  1768  0DB0                     u155_21:
  1769  0DB0  2D9C               	goto	i1l1386
  1770  0DB1                     u155_20:
  1771  0DB1  2DD1               	goto	i1l1396
  1772  0DB2                     i1l1388:
  1773  0DB2  3020               	movlw	32
  1774  0DB3  026D               	subwf	___fltol@exp1,w
  1775  0DB4  1C03               	skipc
  1776  0DB5  2DB7               	goto	u156_21
  1777  0DB6  2DB8               	goto	u156_20
  1778  0DB7                     u156_21:
  1779  0DB7  2DCC               	goto	i1l359
  1780  0DB8                     u156_20:
  1781  0DB8  2D57               	goto	i1l1366
  1782  0DB9                     i1l1394:
  1783  0DB9  3001               	movlw	1
  1784  0DBA  1683               	bsf	3,5	;RP0=1, select bank1
  1785  0DBB  1303               	bcf	3,6	;RP1=0, select bank1
  1786  0DBC  00A0               	movwf	??___fltol^(0+128)
  1787  0DBD                     u157_25:
  1788  0DBD  1003               	clrc
  1789  0DBE  1283               	bcf	3,5	;RP0=0, select bank0
  1790  0DBF  1303               	bcf	3,6	;RP1=0, select bank0
  1791  0DC0  0DE8               	rlf	___fltol@f1,f
  1792  0DC1  0DE9               	rlf	___fltol@f1+1,f
  1793  0DC2  0DEA               	rlf	___fltol@f1+2,f
  1794  0DC3  0DEB               	rlf	___fltol@f1+3,f
  1795  0DC4  1683               	bsf	3,5	;RP0=1, select bank1
  1796  0DC5  1303               	bcf	3,6	;RP1=0, select bank1
  1797  0DC6  0BA0               	decfsz	??___fltol^(0+128),f
  1798  0DC7  2DBD               	goto	u157_25
  1799  0DC8  3001               	movlw	1
  1800  0DC9  1283               	bcf	3,5	;RP0=0, select bank0
  1801  0DCA  1303               	bcf	3,6	;RP1=0, select bank0
  1802  0DCB  02ED               	subwf	___fltol@exp1,f
  1803  0DCC                     i1l359:
  1804  0DCC  086D               	movf	___fltol@exp1,w
  1805  0DCD  1D03               	btfss	3,2
  1806  0DCE  2DD0               	goto	u158_21
  1807  0DCF  2DD1               	goto	u158_20
  1808  0DD0                     u158_21:
  1809  0DD0  2DB9               	goto	i1l1394
  1810  0DD1                     u158_20:
  1811  0DD1                     i1l1396:
  1812  0DD1  086C               	movf	___fltol@sign1,w
  1813  0DD2  1903               	btfsc	3,2
  1814  0DD3  2DD5               	goto	u159_21
  1815  0DD4  2DD6               	goto	u159_20
  1816  0DD5                     u159_21:
  1817  0DD5  2DE1               	goto	i1l362
  1818  0DD6                     u159_20:
  1819  0DD6                     i1l1398:
  1820  0DD6  09E8               	comf	___fltol@f1,f
  1821  0DD7  09E9               	comf	___fltol@f1+1,f
  1822  0DD8  09EA               	comf	___fltol@f1+2,f
  1823  0DD9  09EB               	comf	___fltol@f1+3,f
  1824  0DDA  0AE8               	incf	___fltol@f1,f
  1825  0DDB  1903               	skipnz
  1826  0DDC  0AE9               	incf	___fltol@f1+1,f
  1827  0DDD  1903               	skipnz
  1828  0DDE  0AEA               	incf	___fltol@f1+2,f
  1829  0DDF  1903               	skipnz
  1830  0DE0  0AEB               	incf	___fltol@f1+3,f
  1831  0DE1                     i1l362:
  1832  0DE1                     i1l352:
  1833  0DE1  0008               	return
  1834  0DE2                     __end_of___fltol:
  1835                           
  1836                           	psect	text6
  1837  001D                     __ptext6:	
  1838 ;; *************** function ___flmul *****************
  1839 ;; Defined at:
  1840 ;;		line 8 in file "C:\Program Files\Microchip\xc8\v2.35\pic\sources\c90\common\sprcmul.c"
  1841 ;; Parameters:    Size  Location     Type
  1842 ;;  b               4   26[BANK0 ] long 
  1843 ;;  a               4   30[BANK0 ] long 
  1844 ;; Auto vars:     Size  Location     Type
  1845 ;;  prod            4   46[BANK0 ] struct .
  1846 ;;  grs             4   40[BANK0 ] unsigned long 
  1847 ;;  temp            2   50[BANK0 ] struct .
  1848 ;;  bexp            1   45[BANK0 ] unsigned char 
  1849 ;;  aexp            1   44[BANK0 ] unsigned char 
  1850 ;;  sign            1   39[BANK0 ] unsigned char 
  1851 ;; Return value:  Size  Location     Type
  1852 ;;                  4   26[BANK0 ] unsigned char 
  1853 ;; Registers used:
  1854 ;;		wreg, status,2, status,0, btemp+1, pclath, cstack
  1855 ;; Tracked objects:
  1856 ;;		On entry : 0/0
  1857 ;;		On exit  : 0/0
  1858 ;;		Unchanged: 0/0
  1859 ;; Data sizes:     COMMON   BANK0   BANK1   BANK3   BANK2
  1860 ;;      Params:         0       8       0       0       0
  1861 ;;      Locals:         0      13       0       0       0
  1862 ;;      Temps:          0       5       0       0       0
  1863 ;;      Totals:         0      26       0       0       0
  1864 ;;Total ram usage:       26 bytes
  1865 ;; Hardware stack levels used: 1
  1866 ;; Hardware stack levels required when called: 1
  1867 ;; This function calls:
  1868 ;;		__Umul8_16
  1869 ;; This function is called by:
  1870 ;;		_map
  1871 ;; This function uses a non-reentrant model
  1872 ;;
  1873                           
  1874  001D                     ___flmul:	
  1875                           ;psect for function ___flmul
  1876                           
  1877  001D                     i1l1736:	
  1878                           ;incstack = 0
  1879                           ; Regs used in ___flmul: [wreg+status,2+status,0+btemp+1+pclath+cstack]
  1880                           
  1881  001D  1283               	bcf	3,5	;RP0=0, select bank0
  1882  001E  1303               	bcf	3,6	;RP1=0, select bank0
  1883  001F  083D               	movf	___flmul@b+3,w
  1884  0020  3980               	andlw	128
  1885  0021  00C2               	movwf	??___flmul
  1886  0022  0842               	movf	??___flmul,w
  1887  0023  00C7               	movwf	___flmul@sign
  1888  0024                     i1l1738:
  1889  0024  083D               	movf	___flmul@b+3,w
  1890  0025  00C2               	movwf	??___flmul
  1891  0026  0742               	addwf	??___flmul,w
  1892  0027  00C3               	movwf	??___flmul+1
  1893  0028  0843               	movf	??___flmul+1,w
  1894  0029  00CD               	movwf	___flmul@bexp
  1895  002A                     i1l1740:
  1896  002A  1FBC               	btfss	___flmul@b+2,7
  1897  002B  282D               	goto	u235_21
  1898  002C  282E               	goto	u235_20
  1899  002D                     u235_21:
  1900  002D  282F               	goto	i1l1744
  1901  002E                     u235_20:
  1902  002E                     i1l1742:
  1903  002E  144D               	bsf	___flmul@bexp,0
  1904  002F                     i1l1744:
  1905  002F  084D               	movf	___flmul@bexp,w
  1906  0030  1903               	btfsc	3,2
  1907  0031  2833               	goto	u236_21
  1908  0032  2834               	goto	u236_20
  1909  0033                     u236_21:
  1910  0033  2843               	goto	i1l1752
  1911  0034                     u236_20:
  1912  0034                     i1l1746:
  1913  0034  0A4D               	incf	___flmul@bexp,w
  1914  0035  1D03               	btfss	3,2
  1915  0036  2838               	goto	u237_21
  1916  0037  2839               	goto	u237_20
  1917  0038                     u237_21:
  1918  0038  2841               	goto	i1l1750
  1919  0039                     u237_20:
  1920  0039                     i1l1748:
  1921  0039  3000               	movlw	0
  1922  003A  00BD               	movwf	___flmul@b+3
  1923  003B  3000               	movlw	0
  1924  003C  00BC               	movwf	___flmul@b+2
  1925  003D  3000               	movlw	0
  1926  003E  00BB               	movwf	___flmul@b+1
  1927  003F  3000               	movlw	0
  1928  0040  00BA               	movwf	___flmul@b
  1929  0041                     i1l1750:
  1930  0041  17BC               	bsf	___flmul@b+2,7
  1931  0042  284B               	goto	i1l1754
  1932  0043                     i1l1752:
  1933  0043  3000               	movlw	0
  1934  0044  00BD               	movwf	___flmul@b+3
  1935  0045  3000               	movlw	0
  1936  0046  00BC               	movwf	___flmul@b+2
  1937  0047  3000               	movlw	0
  1938  0048  00BB               	movwf	___flmul@b+1
  1939  0049  3000               	movlw	0
  1940  004A  00BA               	movwf	___flmul@b
  1941  004B                     i1l1754:
  1942  004B  0841               	movf	___flmul@a+3,w
  1943  004C  3980               	andlw	128
  1944  004D  00C2               	movwf	??___flmul
  1945  004E  0842               	movf	??___flmul,w
  1946  004F  06C7               	xorwf	___flmul@sign,f
  1947  0050                     i1l1756:
  1948  0050  0841               	movf	___flmul@a+3,w
  1949  0051  00C2               	movwf	??___flmul
  1950  0052  0742               	addwf	??___flmul,w
  1951  0053  00C3               	movwf	??___flmul+1
  1952  0054  0843               	movf	??___flmul+1,w
  1953  0055  00CC               	movwf	___flmul@aexp
  1954  0056                     i1l1758:
  1955  0056  1FC0               	btfss	___flmul@a+2,7
  1956  0057  2859               	goto	u238_21
  1957  0058  285A               	goto	u238_20
  1958  0059                     u238_21:
  1959  0059  285B               	goto	i1l1762
  1960  005A                     u238_20:
  1961  005A                     i1l1760:
  1962  005A  144C               	bsf	___flmul@aexp,0
  1963  005B                     i1l1762:
  1964  005B  084C               	movf	___flmul@aexp,w
  1965  005C  1903               	btfsc	3,2
  1966  005D  285F               	goto	u239_21
  1967  005E  2860               	goto	u239_20
  1968  005F                     u239_21:
  1969  005F  286F               	goto	i1l1770
  1970  0060                     u239_20:
  1971  0060                     i1l1764:
  1972  0060  0A4C               	incf	___flmul@aexp,w
  1973  0061  1D03               	btfss	3,2
  1974  0062  2864               	goto	u240_21
  1975  0063  2865               	goto	u240_20
  1976  0064                     u240_21:
  1977  0064  286D               	goto	i1l1768
  1978  0065                     u240_20:
  1979  0065                     i1l1766:
  1980  0065  3000               	movlw	0
  1981  0066  00C1               	movwf	___flmul@a+3
  1982  0067  3000               	movlw	0
  1983  0068  00C0               	movwf	___flmul@a+2
  1984  0069  3000               	movlw	0
  1985  006A  00BF               	movwf	___flmul@a+1
  1986  006B  3000               	movlw	0
  1987  006C  00BE               	movwf	___flmul@a
  1988  006D                     i1l1768:
  1989  006D  17C0               	bsf	___flmul@a+2,7
  1990  006E  2877               	goto	i1l1772
  1991  006F                     i1l1770:
  1992  006F  3000               	movlw	0
  1993  0070  00C1               	movwf	___flmul@a+3
  1994  0071  3000               	movlw	0
  1995  0072  00C0               	movwf	___flmul@a+2
  1996  0073  3000               	movlw	0
  1997  0074  00BF               	movwf	___flmul@a+1
  1998  0075  3000               	movlw	0
  1999  0076  00BE               	movwf	___flmul@a
  2000  0077                     i1l1772:
  2001  0077  084C               	movf	___flmul@aexp,w
  2002  0078  1903               	btfsc	3,2
  2003  0079  287B               	goto	u241_21
  2004  007A  287C               	goto	u241_20
  2005  007B                     u241_21:
  2006  007B  2881               	goto	i1l1776
  2007  007C                     u241_20:
  2008  007C                     i1l1774:
  2009  007C  084D               	movf	___flmul@bexp,w
  2010  007D  1D03               	btfss	3,2
  2011  007E  2880               	goto	u242_21
  2012  007F  2881               	goto	u242_20
  2013  0080                     u242_21:
  2014  0080  288A               	goto	i1l1780
  2015  0081                     u242_20:
  2016  0081                     i1l1776:
  2017  0081  3000               	movlw	0
  2018  0082  00BD               	movwf	?___flmul+3
  2019  0083  3000               	movlw	0
  2020  0084  00BC               	movwf	?___flmul+2
  2021  0085  3000               	movlw	0
  2022  0086  00BB               	movwf	?___flmul+1
  2023  0087  3000               	movlw	0
  2024  0088  00BA               	movwf	?___flmul
  2025  0089  2B7D               	goto	i1l555
  2026  008A                     i1l1780:
  2027  008A  083A               	movf	___flmul@b,w
  2028  008B  00C2               	movwf	??___flmul
  2029  008C  0842               	movf	??___flmul,w
  2030  008D  00F0               	movwf	__Umul8_16@multiplicand
  2031  008E  0840               	movf	___flmul@a+2,w
  2032  008F  120A  158A  2487  120A  118A  	fcall	__Umul8_16
  2033  0094  0871               	movf	?__Umul8_16+1,w
  2034  0095  1283               	bcf	3,5	;RP0=0, select bank0
  2035  0096  1303               	bcf	3,6	;RP1=0, select bank0
  2036  0097  00D3               	movwf	___flmul@temp+1
  2037  0098  0870               	movf	?__Umul8_16,w
  2038  0099  00D2               	movwf	___flmul@temp
  2039  009A                     i1l1782:
  2040  009A  0852               	movf	___flmul@temp,w
  2041  009B  00C2               	movwf	??___flmul
  2042  009C  01C3               	clrf	??___flmul+1
  2043  009D  01C4               	clrf	??___flmul+2
  2044  009E  01C5               	clrf	??___flmul+3
  2045  009F  0845               	movf	??___flmul+3,w
  2046  00A0  00CB               	movwf	___flmul@grs+3
  2047  00A1  0844               	movf	??___flmul+2,w
  2048  00A2  00CA               	movwf	___flmul@grs+2
  2049  00A3  0843               	movf	??___flmul+1,w
  2050  00A4  00C9               	movwf	___flmul@grs+1
  2051  00A5  0842               	movf	??___flmul,w
  2052  00A6  00C8               	movwf	___flmul@grs
  2053  00A7                     i1l1784:
  2054  00A7  0853               	movf	___flmul@temp+1,w
  2055  00A8  00C2               	movwf	??___flmul
  2056  00A9  01C3               	clrf	??___flmul+1
  2057  00AA  01C4               	clrf	??___flmul+2
  2058  00AB  01C5               	clrf	??___flmul+3
  2059  00AC  0845               	movf	??___flmul+3,w
  2060  00AD  00D1               	movwf	___flmul@prod+3
  2061  00AE  0844               	movf	??___flmul+2,w
  2062  00AF  00D0               	movwf	___flmul@prod+2
  2063  00B0  0843               	movf	??___flmul+1,w
  2064  00B1  00CF               	movwf	___flmul@prod+1
  2065  00B2  0842               	movf	??___flmul,w
  2066  00B3  00CE               	movwf	___flmul@prod
  2067  00B4  083B               	movf	___flmul@b+1,w
  2068  00B5  00C2               	movwf	??___flmul
  2069  00B6  0842               	movf	??___flmul,w
  2070  00B7  00F0               	movwf	__Umul8_16@multiplicand
  2071  00B8  083F               	movf	___flmul@a+1,w
  2072  00B9  120A  158A  2487  120A  118A  	fcall	__Umul8_16
  2073  00BE  0871               	movf	?__Umul8_16+1,w
  2074  00BF  1283               	bcf	3,5	;RP0=0, select bank0
  2075  00C0  1303               	bcf	3,6	;RP1=0, select bank0
  2076  00C1  00D3               	movwf	___flmul@temp+1
  2077  00C2  0870               	movf	?__Umul8_16,w
  2078  00C3  00D2               	movwf	___flmul@temp
  2079  00C4                     i1l1786:
  2080  00C4  0852               	movf	___flmul@temp,w
  2081  00C5  00C2               	movwf	??___flmul
  2082  00C6  01C3               	clrf	??___flmul+1
  2083  00C7  01C4               	clrf	??___flmul+2
  2084  00C8  01C5               	clrf	??___flmul+3
  2085  00C9  0842               	movf	??___flmul,w
  2086  00CA  07C8               	addwf	___flmul@grs,f
  2087  00CB  0843               	movf	??___flmul+1,w
  2088  00CC  1103               	clrz
  2089  00CD  1803               	skipnc
  2090  00CE  3E01               	addlw	1
  2091  00CF  1903               	skipnz
  2092  00D0  28D2               	goto	u243_21
  2093  00D1  07C9               	addwf	___flmul@grs+1,f
  2094  00D2                     u243_21:
  2095  00D2  0844               	movf	??___flmul+2,w
  2096  00D3  1103               	clrz
  2097  00D4  1803               	skipnc
  2098  00D5  3E01               	addlw	1
  2099  00D6  1903               	skipnz
  2100  00D7  28D9               	goto	u243_22
  2101  00D8  07CA               	addwf	___flmul@grs+2,f
  2102  00D9                     u243_22:
  2103  00D9  0845               	movf	??___flmul+3,w
  2104  00DA  1103               	clrz
  2105  00DB  1803               	skipnc
  2106  00DC  3E01               	addlw	1
  2107  00DD  1903               	skipnz
  2108  00DE  28E0               	goto	u243_23
  2109  00DF  07CB               	addwf	___flmul@grs+3,f
  2110  00E0                     u243_23:
  2111  00E0                     i1l1788:
  2112  00E0  0853               	movf	___flmul@temp+1,w
  2113  00E1  00C2               	movwf	??___flmul
  2114  00E2  01C3               	clrf	??___flmul+1
  2115  00E3  01C4               	clrf	??___flmul+2
  2116  00E4  01C5               	clrf	??___flmul+3
  2117  00E5  0842               	movf	??___flmul,w
  2118  00E6  07CE               	addwf	___flmul@prod,f
  2119  00E7  0843               	movf	??___flmul+1,w
  2120  00E8  1103               	clrz
  2121  00E9  1803               	skipnc
  2122  00EA  3E01               	addlw	1
  2123  00EB  1903               	skipnz
  2124  00EC  28EE               	goto	u244_21
  2125  00ED  07CF               	addwf	___flmul@prod+1,f
  2126  00EE                     u244_21:
  2127  00EE  0844               	movf	??___flmul+2,w
  2128  00EF  1103               	clrz
  2129  00F0  1803               	skipnc
  2130  00F1  3E01               	addlw	1
  2131  00F2  1903               	skipnz
  2132  00F3  28F5               	goto	u244_22
  2133  00F4  07D0               	addwf	___flmul@prod+2,f
  2134  00F5                     u244_22:
  2135  00F5  0845               	movf	??___flmul+3,w
  2136  00F6  1103               	clrz
  2137  00F7  1803               	skipnc
  2138  00F8  3E01               	addlw	1
  2139  00F9  1903               	skipnz
  2140  00FA  28FC               	goto	u244_23
  2141  00FB  07D1               	addwf	___flmul@prod+3,f
  2142  00FC                     u244_23:
  2143  00FC  083C               	movf	___flmul@b+2,w
  2144  00FD  00C2               	movwf	??___flmul
  2145  00FE  0842               	movf	??___flmul,w
  2146  00FF  00F0               	movwf	__Umul8_16@multiplicand
  2147  0100  083E               	movf	___flmul@a,w
  2148  0101  120A  158A  2487  120A  118A  	fcall	__Umul8_16
  2149  0106  0871               	movf	?__Umul8_16+1,w
  2150  0107  1283               	bcf	3,5	;RP0=0, select bank0
  2151  0108  1303               	bcf	3,6	;RP1=0, select bank0
  2152  0109  00D3               	movwf	___flmul@temp+1
  2153  010A  0870               	movf	?__Umul8_16,w
  2154  010B  00D2               	movwf	___flmul@temp
  2155  010C                     i1l1790:
  2156  010C  0852               	movf	___flmul@temp,w
  2157  010D  00C2               	movwf	??___flmul
  2158  010E  01C3               	clrf	??___flmul+1
  2159  010F  01C4               	clrf	??___flmul+2
  2160  0110  01C5               	clrf	??___flmul+3
  2161  0111  0842               	movf	??___flmul,w
  2162  0112  07C8               	addwf	___flmul@grs,f
  2163  0113  0843               	movf	??___flmul+1,w
  2164  0114  1103               	clrz
  2165  0115  1803               	skipnc
  2166  0116  3E01               	addlw	1
  2167  0117  1903               	skipnz
  2168  0118  291A               	goto	u245_21
  2169  0119  07C9               	addwf	___flmul@grs+1,f
  2170  011A                     u245_21:
  2171  011A  0844               	movf	??___flmul+2,w
  2172  011B  1103               	clrz
  2173  011C  1803               	skipnc
  2174  011D  3E01               	addlw	1
  2175  011E  1903               	skipnz
  2176  011F  2921               	goto	u245_22
  2177  0120  07CA               	addwf	___flmul@grs+2,f
  2178  0121                     u245_22:
  2179  0121  0845               	movf	??___flmul+3,w
  2180  0122  1103               	clrz
  2181  0123  1803               	skipnc
  2182  0124  3E01               	addlw	1
  2183  0125  1903               	skipnz
  2184  0126  2928               	goto	u245_23
  2185  0127  07CB               	addwf	___flmul@grs+3,f
  2186  0128                     u245_23:
  2187  0128                     i1l1792:
  2188  0128  0853               	movf	___flmul@temp+1,w
  2189  0129  00C2               	movwf	??___flmul
  2190  012A  01C3               	clrf	??___flmul+1
  2191  012B  01C4               	clrf	??___flmul+2
  2192  012C  01C5               	clrf	??___flmul+3
  2193  012D  0842               	movf	??___flmul,w
  2194  012E  07CE               	addwf	___flmul@prod,f
  2195  012F  0843               	movf	??___flmul+1,w
  2196  0130  1103               	clrz
  2197  0131  1803               	skipnc
  2198  0132  3E01               	addlw	1
  2199  0133  1903               	skipnz
  2200  0134  2936               	goto	u246_21
  2201  0135  07CF               	addwf	___flmul@prod+1,f
  2202  0136                     u246_21:
  2203  0136  0844               	movf	??___flmul+2,w
  2204  0137  1103               	clrz
  2205  0138  1803               	skipnc
  2206  0139  3E01               	addlw	1
  2207  013A  1903               	skipnz
  2208  013B  293D               	goto	u246_22
  2209  013C  07D0               	addwf	___flmul@prod+2,f
  2210  013D                     u246_22:
  2211  013D  0845               	movf	??___flmul+3,w
  2212  013E  1103               	clrz
  2213  013F  1803               	skipnc
  2214  0140  3E01               	addlw	1
  2215  0141  1903               	skipnz
  2216  0142  2944               	goto	u246_23
  2217  0143  07D1               	addwf	___flmul@prod+3,f
  2218  0144                     u246_23:
  2219  0144                     i1l1794:
  2220  0144  3008               	movlw	8
  2221  0145  00C2               	movwf	??___flmul
  2222  0146                     u247_25:
  2223  0146  1003               	clrc
  2224  0147  0DC8               	rlf	___flmul@grs,f
  2225  0148  0DC9               	rlf	___flmul@grs+1,f
  2226  0149  0DCA               	rlf	___flmul@grs+2,f
  2227  014A  0DCB               	rlf	___flmul@grs+3,f
  2228  014B  0BC2               	decfsz	??___flmul,f
  2229  014C  2946               	goto	u247_25
  2230  014D                     i1l1796:
  2231  014D  083B               	movf	___flmul@b+1,w
  2232  014E  00C2               	movwf	??___flmul
  2233  014F  0842               	movf	??___flmul,w
  2234  0150  00F0               	movwf	__Umul8_16@multiplicand
  2235  0151  083E               	movf	___flmul@a,w
  2236  0152  120A  158A  2487  120A  118A  	fcall	__Umul8_16
  2237  0157  0871               	movf	?__Umul8_16+1,w
  2238  0158  1283               	bcf	3,5	;RP0=0, select bank0
  2239  0159  1303               	bcf	3,6	;RP1=0, select bank0
  2240  015A  00D3               	movwf	___flmul@temp+1
  2241  015B  0870               	movf	?__Umul8_16,w
  2242  015C  00D2               	movwf	___flmul@temp
  2243  015D                     i1l1798:
  2244  015D  0852               	movf	___flmul@temp,w
  2245  015E  00C2               	movwf	??___flmul
  2246  015F  0853               	movf	___flmul@temp+1,w
  2247  0160  00C3               	movwf	??___flmul+1
  2248  0161  01C4               	clrf	??___flmul+2
  2249  0162  01C5               	clrf	??___flmul+3
  2250  0163  0842               	movf	??___flmul,w
  2251  0164  07C8               	addwf	___flmul@grs,f
  2252  0165  0843               	movf	??___flmul+1,w
  2253  0166  1103               	clrz
  2254  0167  1803               	skipnc
  2255  0168  3E01               	addlw	1
  2256  0169  1903               	skipnz
  2257  016A  296C               	goto	u248_21
  2258  016B  07C9               	addwf	___flmul@grs+1,f
  2259  016C                     u248_21:
  2260  016C  0844               	movf	??___flmul+2,w
  2261  016D  1103               	clrz
  2262  016E  1803               	skipnc
  2263  016F  3E01               	addlw	1
  2264  0170  1903               	skipnz
  2265  0171  2973               	goto	u248_22
  2266  0172  07CA               	addwf	___flmul@grs+2,f
  2267  0173                     u248_22:
  2268  0173  0845               	movf	??___flmul+3,w
  2269  0174  1103               	clrz
  2270  0175  1803               	skipnc
  2271  0176  3E01               	addlw	1
  2272  0177  1903               	skipnz
  2273  0178  297A               	goto	u248_23
  2274  0179  07CB               	addwf	___flmul@grs+3,f
  2275  017A                     u248_23:
  2276  017A                     i1l1800:
  2277  017A  083A               	movf	___flmul@b,w
  2278  017B  00C2               	movwf	??___flmul
  2279  017C  0842               	movf	??___flmul,w
  2280  017D  00F0               	movwf	__Umul8_16@multiplicand
  2281  017E  083F               	movf	___flmul@a+1,w
  2282  017F  120A  158A  2487  120A  118A  	fcall	__Umul8_16
  2283  0184  0871               	movf	?__Umul8_16+1,w
  2284  0185  1283               	bcf	3,5	;RP0=0, select bank0
  2285  0186  1303               	bcf	3,6	;RP1=0, select bank0
  2286  0187  00D3               	movwf	___flmul@temp+1
  2287  0188  0870               	movf	?__Umul8_16,w
  2288  0189  00D2               	movwf	___flmul@temp
  2289  018A                     i1l1802:
  2290  018A  0852               	movf	___flmul@temp,w
  2291  018B  00C2               	movwf	??___flmul
  2292  018C  0853               	movf	___flmul@temp+1,w
  2293  018D  00C3               	movwf	??___flmul+1
  2294  018E  01C4               	clrf	??___flmul+2
  2295  018F  01C5               	clrf	??___flmul+3
  2296  0190  0842               	movf	??___flmul,w
  2297  0191  07C8               	addwf	___flmul@grs,f
  2298  0192  0843               	movf	??___flmul+1,w
  2299  0193  1103               	clrz
  2300  0194  1803               	skipnc
  2301  0195  3E01               	addlw	1
  2302  0196  1903               	skipnz
  2303  0197  2999               	goto	u249_21
  2304  0198  07C9               	addwf	___flmul@grs+1,f
  2305  0199                     u249_21:
  2306  0199  0844               	movf	??___flmul+2,w
  2307  019A  1103               	clrz
  2308  019B  1803               	skipnc
  2309  019C  3E01               	addlw	1
  2310  019D  1903               	skipnz
  2311  019E  29A0               	goto	u249_22
  2312  019F  07CA               	addwf	___flmul@grs+2,f
  2313  01A0                     u249_22:
  2314  01A0  0845               	movf	??___flmul+3,w
  2315  01A1  1103               	clrz
  2316  01A2  1803               	skipnc
  2317  01A3  3E01               	addlw	1
  2318  01A4  1903               	skipnz
  2319  01A5  29A7               	goto	u249_23
  2320  01A6  07CB               	addwf	___flmul@grs+3,f
  2321  01A7                     u249_23:
  2322  01A7                     i1l1804:
  2323  01A7  3008               	movlw	8
  2324  01A8  00C2               	movwf	??___flmul
  2325  01A9                     u250_25:
  2326  01A9  1003               	clrc
  2327  01AA  0DC8               	rlf	___flmul@grs,f
  2328  01AB  0DC9               	rlf	___flmul@grs+1,f
  2329  01AC  0DCA               	rlf	___flmul@grs+2,f
  2330  01AD  0DCB               	rlf	___flmul@grs+3,f
  2331  01AE  0BC2               	decfsz	??___flmul,f
  2332  01AF  29A9               	goto	u250_25
  2333  01B0  083A               	movf	___flmul@b,w
  2334  01B1  00C2               	movwf	??___flmul
  2335  01B2  0842               	movf	??___flmul,w
  2336  01B3  00F0               	movwf	__Umul8_16@multiplicand
  2337  01B4  083E               	movf	___flmul@a,w
  2338  01B5  120A  158A  2487  120A  118A  	fcall	__Umul8_16
  2339  01BA  0871               	movf	?__Umul8_16+1,w
  2340  01BB  1283               	bcf	3,5	;RP0=0, select bank0
  2341  01BC  1303               	bcf	3,6	;RP1=0, select bank0
  2342  01BD  00D3               	movwf	___flmul@temp+1
  2343  01BE  0870               	movf	?__Umul8_16,w
  2344  01BF  00D2               	movwf	___flmul@temp
  2345  01C0                     i1l1806:
  2346  01C0  0852               	movf	___flmul@temp,w
  2347  01C1  00C2               	movwf	??___flmul
  2348  01C2  0853               	movf	___flmul@temp+1,w
  2349  01C3  00C3               	movwf	??___flmul+1
  2350  01C4  01C4               	clrf	??___flmul+2
  2351  01C5  01C5               	clrf	??___flmul+3
  2352  01C6  0842               	movf	??___flmul,w
  2353  01C7  07C8               	addwf	___flmul@grs,f
  2354  01C8  0843               	movf	??___flmul+1,w
  2355  01C9  1103               	clrz
  2356  01CA  1803               	skipnc
  2357  01CB  3E01               	addlw	1
  2358  01CC  1903               	skipnz
  2359  01CD  29CF               	goto	u251_21
  2360  01CE  07C9               	addwf	___flmul@grs+1,f
  2361  01CF                     u251_21:
  2362  01CF  0844               	movf	??___flmul+2,w
  2363  01D0  1103               	clrz
  2364  01D1  1803               	skipnc
  2365  01D2  3E01               	addlw	1
  2366  01D3  1903               	skipnz
  2367  01D4  29D6               	goto	u251_22
  2368  01D5  07CA               	addwf	___flmul@grs+2,f
  2369  01D6                     u251_22:
  2370  01D6  0845               	movf	??___flmul+3,w
  2371  01D7  1103               	clrz
  2372  01D8  1803               	skipnc
  2373  01D9  3E01               	addlw	1
  2374  01DA  1903               	skipnz
  2375  01DB  29DD               	goto	u251_23
  2376  01DC  07CB               	addwf	___flmul@grs+3,f
  2377  01DD                     u251_23:
  2378  01DD                     i1l1808:
  2379  01DD  083B               	movf	___flmul@b+1,w
  2380  01DE  00C2               	movwf	??___flmul
  2381  01DF  0842               	movf	??___flmul,w
  2382  01E0  00F0               	movwf	__Umul8_16@multiplicand
  2383  01E1  0840               	movf	___flmul@a+2,w
  2384  01E2  120A  158A  2487  120A  118A  	fcall	__Umul8_16
  2385  01E7  0871               	movf	?__Umul8_16+1,w
  2386  01E8  1283               	bcf	3,5	;RP0=0, select bank0
  2387  01E9  1303               	bcf	3,6	;RP1=0, select bank0
  2388  01EA  00D3               	movwf	___flmul@temp+1
  2389  01EB  0870               	movf	?__Umul8_16,w
  2390  01EC  00D2               	movwf	___flmul@temp
  2391  01ED  0852               	movf	___flmul@temp,w
  2392  01EE  00C2               	movwf	??___flmul
  2393  01EF  0853               	movf	___flmul@temp+1,w
  2394  01F0  00C3               	movwf	??___flmul+1
  2395  01F1  01C4               	clrf	??___flmul+2
  2396  01F2  01C5               	clrf	??___flmul+3
  2397  01F3  0842               	movf	??___flmul,w
  2398  01F4  07CE               	addwf	___flmul@prod,f
  2399  01F5  0843               	movf	??___flmul+1,w
  2400  01F6  1103               	clrz
  2401  01F7  1803               	skipnc
  2402  01F8  3E01               	addlw	1
  2403  01F9  1903               	skipnz
  2404  01FA  29FC               	goto	u252_21
  2405  01FB  07CF               	addwf	___flmul@prod+1,f
  2406  01FC                     u252_21:
  2407  01FC  0844               	movf	??___flmul+2,w
  2408  01FD  1103               	clrz
  2409  01FE  1803               	skipnc
  2410  01FF  3E01               	addlw	1
  2411  0200  1903               	skipnz
  2412  0201  2A03               	goto	u252_22
  2413  0202  07D0               	addwf	___flmul@prod+2,f
  2414  0203                     u252_22:
  2415  0203  0845               	movf	??___flmul+3,w
  2416  0204  1103               	clrz
  2417  0205  1803               	skipnc
  2418  0206  3E01               	addlw	1
  2419  0207  1903               	skipnz
  2420  0208  2A0A               	goto	u252_23
  2421  0209  07D1               	addwf	___flmul@prod+3,f
  2422  020A                     u252_23:
  2423  020A                     i1l1810:
  2424  020A  083C               	movf	___flmul@b+2,w
  2425  020B  00C2               	movwf	??___flmul
  2426  020C  0842               	movf	??___flmul,w
  2427  020D  00F0               	movwf	__Umul8_16@multiplicand
  2428  020E  083F               	movf	___flmul@a+1,w
  2429  020F  120A  158A  2487  120A  118A  	fcall	__Umul8_16
  2430  0214  0871               	movf	?__Umul8_16+1,w
  2431  0215  1283               	bcf	3,5	;RP0=0, select bank0
  2432  0216  1303               	bcf	3,6	;RP1=0, select bank0
  2433  0217  00D3               	movwf	___flmul@temp+1
  2434  0218  0870               	movf	?__Umul8_16,w
  2435  0219  00D2               	movwf	___flmul@temp
  2436  021A                     i1l1812:
  2437  021A  0852               	movf	___flmul@temp,w
  2438  021B  00C2               	movwf	??___flmul
  2439  021C  0853               	movf	___flmul@temp+1,w
  2440  021D  00C3               	movwf	??___flmul+1
  2441  021E  01C4               	clrf	??___flmul+2
  2442  021F  01C5               	clrf	??___flmul+3
  2443  0220  0842               	movf	??___flmul,w
  2444  0221  07CE               	addwf	___flmul@prod,f
  2445  0222  0843               	movf	??___flmul+1,w
  2446  0223  1103               	clrz
  2447  0224  1803               	skipnc
  2448  0225  3E01               	addlw	1
  2449  0226  1903               	skipnz
  2450  0227  2A29               	goto	u253_21
  2451  0228  07CF               	addwf	___flmul@prod+1,f
  2452  0229                     u253_21:
  2453  0229  0844               	movf	??___flmul+2,w
  2454  022A  1103               	clrz
  2455  022B  1803               	skipnc
  2456  022C  3E01               	addlw	1
  2457  022D  1903               	skipnz
  2458  022E  2A30               	goto	u253_22
  2459  022F  07D0               	addwf	___flmul@prod+2,f
  2460  0230                     u253_22:
  2461  0230  0845               	movf	??___flmul+3,w
  2462  0231  1103               	clrz
  2463  0232  1803               	skipnc
  2464  0233  3E01               	addlw	1
  2465  0234  1903               	skipnz
  2466  0235  2A37               	goto	u253_23
  2467  0236  07D1               	addwf	___flmul@prod+3,f
  2468  0237                     u253_23:
  2469  0237  083C               	movf	___flmul@b+2,w
  2470  0238  00C2               	movwf	??___flmul
  2471  0239  0842               	movf	??___flmul,w
  2472  023A  00F0               	movwf	__Umul8_16@multiplicand
  2473  023B  0840               	movf	___flmul@a+2,w
  2474  023C  120A  158A  2487  120A  118A  	fcall	__Umul8_16
  2475  0241  0871               	movf	?__Umul8_16+1,w
  2476  0242  1283               	bcf	3,5	;RP0=0, select bank0
  2477  0243  1303               	bcf	3,6	;RP1=0, select bank0
  2478  0244  00D3               	movwf	___flmul@temp+1
  2479  0245  0870               	movf	?__Umul8_16,w
  2480  0246  00D2               	movwf	___flmul@temp
  2481  0247                     i1l1814:
  2482  0247  0852               	movf	___flmul@temp,w
  2483  0248  00C2               	movwf	??___flmul
  2484  0249  0853               	movf	___flmul@temp+1,w
  2485  024A  00C3               	movwf	??___flmul+1
  2486  024B  01C4               	clrf	??___flmul+2
  2487  024C  01C5               	clrf	??___flmul+3
  2488  024D  3008               	movlw	8
  2489  024E                     u254_25:
  2490  024E  1003               	clrc
  2491  024F  0DC2               	rlf	??___flmul,f
  2492  0250  0DC3               	rlf	??___flmul+1,f
  2493  0251  0DC4               	rlf	??___flmul+2,f
  2494  0252  0DC5               	rlf	??___flmul+3,f
  2495  0253                     u254_20:
  2496  0253  3EFF               	addlw	-1
  2497  0254  1D03               	skipz
  2498  0255  2A4E               	goto	u254_25
  2499  0256  0842               	movf	??___flmul,w
  2500  0257  07CE               	addwf	___flmul@prod,f
  2501  0258  0843               	movf	??___flmul+1,w
  2502  0259  1103               	clrz
  2503  025A  1803               	skipnc
  2504  025B  3E01               	addlw	1
  2505  025C  1903               	skipnz
  2506  025D  2A5F               	goto	u255_21
  2507  025E  07CF               	addwf	___flmul@prod+1,f
  2508  025F                     u255_21:
  2509  025F  0844               	movf	??___flmul+2,w
  2510  0260  1103               	clrz
  2511  0261  1803               	skipnc
  2512  0262  3E01               	addlw	1
  2513  0263  1903               	skipnz
  2514  0264  2A66               	goto	u255_22
  2515  0265  07D0               	addwf	___flmul@prod+2,f
  2516  0266                     u255_22:
  2517  0266  0845               	movf	??___flmul+3,w
  2518  0267  1103               	clrz
  2519  0268  1803               	skipnc
  2520  0269  3E01               	addlw	1
  2521  026A  1903               	skipnz
  2522  026B  2A6D               	goto	u255_23
  2523  026C  07D1               	addwf	___flmul@prod+3,f
  2524  026D                     u255_23:
  2525  026D                     i1l1816:
  2526  026D  0848               	movf	___flmul@grs,w
  2527  026E  00C2               	movwf	??___flmul
  2528  026F  0849               	movf	___flmul@grs+1,w
  2529  0270  00C3               	movwf	??___flmul+1
  2530  0271  084A               	movf	___flmul@grs+2,w
  2531  0272  00C4               	movwf	??___flmul+2
  2532  0273  084B               	movf	___flmul@grs+3,w
  2533  0274  00C5               	movwf	??___flmul+3
  2534  0275  3018               	movlw	24
  2535  0276                     u256_25:
  2536  0276  1003               	clrc
  2537  0277  0CC5               	rrf	??___flmul+3,f
  2538  0278  0CC4               	rrf	??___flmul+2,f
  2539  0279  0CC3               	rrf	??___flmul+1,f
  2540  027A  0CC2               	rrf	??___flmul,f
  2541  027B                     u256_20:
  2542  027B  3EFF               	addlw	-1
  2543  027C  1D03               	skipz
  2544  027D  2A76               	goto	u256_25
  2545  027E  0842               	movf	??___flmul,w
  2546  027F  07CE               	addwf	___flmul@prod,f
  2547  0280  0843               	movf	??___flmul+1,w
  2548  0281  1103               	clrz
  2549  0282  1803               	skipnc
  2550  0283  3E01               	addlw	1
  2551  0284  1903               	skipnz
  2552  0285  2A87               	goto	u257_21
  2553  0286  07CF               	addwf	___flmul@prod+1,f
  2554  0287                     u257_21:
  2555  0287  0844               	movf	??___flmul+2,w
  2556  0288  1103               	clrz
  2557  0289  1803               	skipnc
  2558  028A  3E01               	addlw	1
  2559  028B  1903               	skipnz
  2560  028C  2A8E               	goto	u257_22
  2561  028D  07D0               	addwf	___flmul@prod+2,f
  2562  028E                     u257_22:
  2563  028E  0845               	movf	??___flmul+3,w
  2564  028F  1103               	clrz
  2565  0290  1803               	skipnc
  2566  0291  3E01               	addlw	1
  2567  0292  1903               	skipnz
  2568  0293  2A95               	goto	u257_23
  2569  0294  07D1               	addwf	___flmul@prod+3,f
  2570  0295                     u257_23:
  2571  0295                     i1l1818:
  2572  0295  3008               	movlw	8
  2573  0296  00C2               	movwf	??___flmul
  2574  0297                     u258_25:
  2575  0297  1003               	clrc
  2576  0298  0DC8               	rlf	___flmul@grs,f
  2577  0299  0DC9               	rlf	___flmul@grs+1,f
  2578  029A  0DCA               	rlf	___flmul@grs+2,f
  2579  029B  0DCB               	rlf	___flmul@grs+3,f
  2580  029C  0BC2               	decfsz	??___flmul,f
  2581  029D  2A97               	goto	u258_25
  2582  029E                     i1l1820:
  2583  029E  084D               	movf	___flmul@bexp,w
  2584  029F  074C               	addwf	___flmul@aexp,w
  2585  02A0  00C2               	movwf	??___flmul
  2586  02A1  01C3               	clrf	??___flmul+1
  2587  02A2  0DC3               	rlf	??___flmul+1,f
  2588  02A3  0842               	movf	??___flmul,w
  2589  02A4  3E82               	addlw	130
  2590  02A5  00D2               	movwf	___flmul@temp
  2591  02A6  0843               	movf	??___flmul+1,w
  2592  02A7  1803               	skipnc
  2593  02A8  3E01               	addlw	1
  2594  02A9  3EFF               	addlw	255
  2595  02AA  00D3               	movwf	___flmul@temp+1
  2596  02AB  2AC9               	goto	i1l1832
  2597  02AC                     i1l1822:
  2598  02AC  3001               	movlw	1
  2599  02AD  00C2               	movwf	??___flmul
  2600  02AE                     u259_25:
  2601  02AE  1003               	clrc
  2602  02AF  0DCE               	rlf	___flmul@prod,f
  2603  02B0  0DCF               	rlf	___flmul@prod+1,f
  2604  02B1  0DD0               	rlf	___flmul@prod+2,f
  2605  02B2  0DD1               	rlf	___flmul@prod+3,f
  2606  02B3  0BC2               	decfsz	??___flmul,f
  2607  02B4  2AAE               	goto	u259_25
  2608  02B5                     i1l1824:
  2609  02B5  1FCB               	btfss	___flmul@grs+3,7
  2610  02B6  2AB8               	goto	u260_21
  2611  02B7  2AB9               	goto	u260_20
  2612  02B8                     u260_21:
  2613  02B8  2ABA               	goto	i1l1828
  2614  02B9                     u260_20:
  2615  02B9                     i1l1826:
  2616  02B9  144E               	bsf	___flmul@prod,0
  2617  02BA                     i1l1828:
  2618  02BA  3001               	movlw	1
  2619  02BB  00C2               	movwf	??___flmul
  2620  02BC                     u261_25:
  2621  02BC  1003               	clrc
  2622  02BD  0DC8               	rlf	___flmul@grs,f
  2623  02BE  0DC9               	rlf	___flmul@grs+1,f
  2624  02BF  0DCA               	rlf	___flmul@grs+2,f
  2625  02C0  0DCB               	rlf	___flmul@grs+3,f
  2626  02C1  0BC2               	decfsz	??___flmul,f
  2627  02C2  2ABC               	goto	u261_25
  2628  02C3                     i1l1830:
  2629  02C3  30FF               	movlw	255
  2630  02C4  07D2               	addwf	___flmul@temp,f
  2631  02C5  1803               	skipnc
  2632  02C6  0AD3               	incf	___flmul@temp+1,f
  2633  02C7  30FF               	movlw	255
  2634  02C8  07D3               	addwf	___flmul@temp+1,f
  2635  02C9                     i1l1832:
  2636  02C9  1FD0               	btfss	___flmul@prod+2,7
  2637  02CA  2ACC               	goto	u262_21
  2638  02CB  2ACD               	goto	u262_20
  2639  02CC                     u262_21:
  2640  02CC  2AAC               	goto	i1l1822
  2641  02CD                     u262_20:
  2642  02CD                     i1l1834:
  2643  02CD  01CC               	clrf	___flmul@aexp
  2644  02CE                     i1l1836:
  2645  02CE  1FCB               	btfss	___flmul@grs+3,7
  2646  02CF  2AD1               	goto	u263_21
  2647  02D0  2AD2               	goto	u263_20
  2648  02D1                     u263_21:
  2649  02D1  2AEE               	goto	i1l1844
  2650  02D2                     u263_20:
  2651  02D2                     i1l1838:
  2652  02D2  30FF               	movlw	255
  2653  02D3  0548               	andwf	___flmul@grs,w
  2654  02D4  00C2               	movwf	??___flmul
  2655  02D5  30FF               	movlw	255
  2656  02D6  0549               	andwf	___flmul@grs+1,w
  2657  02D7  00C3               	movwf	??___flmul+1
  2658  02D8  30FF               	movlw	255
  2659  02D9  054A               	andwf	___flmul@grs+2,w
  2660  02DA  00C4               	movwf	??___flmul+2
  2661  02DB  307F               	movlw	127
  2662  02DC  054B               	andwf	___flmul@grs+3,w
  2663  02DD  00C5               	movwf	??___flmul+3
  2664  02DE  0845               	movf	??___flmul+3,w
  2665  02DF  0444               	iorwf	??___flmul+2,w
  2666  02E0  0443               	iorwf	??___flmul+1,w
  2667  02E1  0442               	iorwf	??___flmul,w
  2668  02E2  1903               	skipnz
  2669  02E3  2AE5               	goto	u264_21
  2670  02E4  2AE6               	goto	u264_20
  2671  02E5                     u264_21:
  2672  02E5  2AE9               	goto	i1l561
  2673  02E6                     u264_20:
  2674  02E6                     i1l1840:
  2675  02E6  01CC               	clrf	___flmul@aexp
  2676  02E7  0ACC               	incf	___flmul@aexp,f
  2677  02E8  2AEE               	goto	i1l1844
  2678  02E9                     i1l561:
  2679  02E9  1C4E               	btfss	___flmul@prod,0
  2680  02EA  2AEC               	goto	u265_21
  2681  02EB  2AED               	goto	u265_20
  2682  02EC                     u265_21:
  2683  02EC  2AEE               	goto	i1l1844
  2684  02ED                     u265_20:
  2685  02ED  2AE6               	goto	i1l1840
  2686  02EE                     i1l1844:
  2687  02EE  084C               	movf	___flmul@aexp,w
  2688  02EF  1903               	btfsc	3,2
  2689  02F0  2AF2               	goto	u266_21
  2690  02F1  2AF3               	goto	u266_20
  2691  02F2                     u266_21:
  2692  02F2  2B24               	goto	i1l1854
  2693  02F3                     u266_20:
  2694  02F3                     i1l1846:
  2695  02F3  3001               	movlw	1
  2696  02F4  07CE               	addwf	___flmul@prod,f
  2697  02F5  3000               	movlw	0
  2698  02F6  1803               	skipnc
  2699  02F7  3001               	movlw	1
  2700  02F8  07CF               	addwf	___flmul@prod+1,f
  2701  02F9  3000               	movlw	0
  2702  02FA  1803               	skipnc
  2703  02FB  3001               	movlw	1
  2704  02FC  07D0               	addwf	___flmul@prod+2,f
  2705  02FD  3000               	movlw	0
  2706  02FE  1803               	skipnc
  2707  02FF  3001               	movlw	1
  2708  0300  07D1               	addwf	___flmul@prod+3,f
  2709  0301                     i1l1848:
  2710  0301  1C51               	btfss	___flmul@prod+3,0
  2711  0302  2B04               	goto	u267_21
  2712  0303  2B05               	goto	u267_20
  2713  0304                     u267_21:
  2714  0304  2B24               	goto	i1l1854
  2715  0305                     u267_20:
  2716  0305                     i1l1850:
  2717  0305  084E               	movf	___flmul@prod,w
  2718  0306  00C2               	movwf	??___flmul
  2719  0307  084F               	movf	___flmul@prod+1,w
  2720  0308  00C3               	movwf	??___flmul+1
  2721  0309  0850               	movf	___flmul@prod+2,w
  2722  030A  00C4               	movwf	??___flmul+2
  2723  030B  0851               	movf	___flmul@prod+3,w
  2724  030C  00C5               	movwf	??___flmul+3
  2725  030D  3001               	movlw	1
  2726  030E  00C6               	movwf	??___flmul+4
  2727  030F                     u268_25:
  2728  030F  0D45               	rlf	??___flmul+3,w
  2729  0310  0CC5               	rrf	??___flmul+3,f
  2730  0311  0CC4               	rrf	??___flmul+2,f
  2731  0312  0CC3               	rrf	??___flmul+1,f
  2732  0313  0CC2               	rrf	??___flmul,f
  2733  0314                     u268_20:
  2734  0314  0BC6               	decfsz	??___flmul+4,f
  2735  0315  2B0F               	goto	u268_25
  2736  0316  0845               	movf	??___flmul+3,w
  2737  0317  00D1               	movwf	___flmul@prod+3
  2738  0318  0844               	movf	??___flmul+2,w
  2739  0319  00D0               	movwf	___flmul@prod+2
  2740  031A  0843               	movf	??___flmul+1,w
  2741  031B  00CF               	movwf	___flmul@prod+1
  2742  031C  0842               	movf	??___flmul,w
  2743  031D  00CE               	movwf	___flmul@prod
  2744  031E                     i1l1852:
  2745  031E  3001               	movlw	1
  2746  031F  07D2               	addwf	___flmul@temp,f
  2747  0320  1803               	skipnc
  2748  0321  0AD3               	incf	___flmul@temp+1,f
  2749  0322  3000               	movlw	0
  2750  0323  07D3               	addwf	___flmul@temp+1,f
  2751  0324                     i1l1854:
  2752  0324  0853               	movf	___flmul@temp+1,w
  2753  0325  3A80               	xorlw	128
  2754  0326  00FF               	movwf	btemp+1
  2755  0327  3080               	movlw	128
  2756  0328  027F               	subwf	btemp+1,w
  2757  0329  1D03               	skipz
  2758  032A  2B2D               	goto	u269_25
  2759  032B  30FF               	movlw	255
  2760  032C  0252               	subwf	___flmul@temp,w
  2761  032D                     u269_25:
  2762  032D  1C03               	skipc
  2763  032E  2B30               	goto	u269_21
  2764  032F  2B31               	goto	u269_20
  2765  0330                     u269_21:
  2766  0330  2B3C               	goto	i1l1858
  2767  0331                     u269_20:
  2768  0331                     i1l1856:
  2769  0331  307F               	movlw	127
  2770  0332  1283               	bcf	3,5	;RP0=0, select bank0
  2771  0333  1303               	bcf	3,6	;RP1=0, select bank0
  2772  0334  00D1               	movwf	___flmul@prod+3
  2773  0335  3080               	movlw	128
  2774  0336  00D0               	movwf	___flmul@prod+2
  2775  0337  3000               	movlw	0
  2776  0338  00CF               	movwf	___flmul@prod+1
  2777  0339  3000               	movlw	0
  2778  033A  00CE               	movwf	___flmul@prod
  2779  033B  2B71               	goto	i1l567
  2780  033C                     i1l1858:
  2781  033C  1283               	bcf	3,5	;RP0=0, select bank0
  2782  033D  1303               	bcf	3,6	;RP1=0, select bank0
  2783  033E  0853               	movf	___flmul@temp+1,w
  2784  033F  3A80               	xorlw	128
  2785  0340  00FF               	movwf	btemp+1
  2786  0341  3080               	movlw	128
  2787  0342  027F               	subwf	btemp+1,w
  2788  0343  1D03               	skipz
  2789  0344  2B47               	goto	u270_25
  2790  0345  3001               	movlw	1
  2791  0346  0252               	subwf	___flmul@temp,w
  2792  0347                     u270_25:
  2793  0347  1803               	skipnc
  2794  0348  2B4A               	goto	u270_21
  2795  0349  2B4B               	goto	u270_20
  2796  034A                     u270_21:
  2797  034A  2B57               	goto	i1l1864
  2798  034B                     u270_20:
  2799  034B                     i1l1860:
  2800  034B  3000               	movlw	0
  2801  034C  1283               	bcf	3,5	;RP0=0, select bank0
  2802  034D  1303               	bcf	3,6	;RP1=0, select bank0
  2803  034E  00D1               	movwf	___flmul@prod+3
  2804  034F  3000               	movlw	0
  2805  0350  00D0               	movwf	___flmul@prod+2
  2806  0351  3000               	movlw	0
  2807  0352  00CF               	movwf	___flmul@prod+1
  2808  0353  3000               	movlw	0
  2809  0354  00CE               	movwf	___flmul@prod
  2810  0355                     i1l1862:
  2811  0355  01C7               	clrf	___flmul@sign
  2812  0356  2B71               	goto	i1l567
  2813  0357                     i1l1864:
  2814  0357  1283               	bcf	3,5	;RP0=0, select bank0
  2815  0358  1303               	bcf	3,6	;RP1=0, select bank0
  2816  0359  0852               	movf	___flmul@temp,w
  2817  035A  00C2               	movwf	??___flmul
  2818  035B  0842               	movf	??___flmul,w
  2819  035C  00CD               	movwf	___flmul@bexp
  2820  035D  30FF               	movlw	255
  2821  035E  05CE               	andwf	___flmul@prod,f
  2822  035F  30FF               	movlw	255
  2823  0360  05CF               	andwf	___flmul@prod+1,f
  2824  0361  307F               	movlw	127
  2825  0362  05D0               	andwf	___flmul@prod+2,f
  2826  0363  3000               	movlw	0
  2827  0364  05D1               	andwf	___flmul@prod+3,f
  2828  0365                     i1l1866:
  2829  0365  1C4D               	btfss	___flmul@bexp,0
  2830  0366  2B68               	goto	u271_21
  2831  0367  2B69               	goto	u271_20
  2832  0368                     u271_21:
  2833  0368  2B6A               	goto	i1l1870
  2834  0369                     u271_20:
  2835  0369                     i1l1868:
  2836  0369  17D0               	bsf	___flmul@prod+2,7
  2837  036A                     i1l1870:
  2838  036A  084D               	movf	___flmul@bexp,w
  2839  036B  00C2               	movwf	??___flmul
  2840  036C  1003               	clrc
  2841  036D  0C42               	rrf	??___flmul,w
  2842  036E  00C3               	movwf	??___flmul+1
  2843  036F  0843               	movf	??___flmul+1,w
  2844  0370  00D1               	movwf	___flmul@prod+3
  2845  0371                     i1l567:
  2846  0371  0847               	movf	___flmul@sign,w
  2847  0372  00C2               	movwf	??___flmul
  2848  0373  0842               	movf	??___flmul,w
  2849  0374  04D1               	iorwf	___flmul@prod+3,f
  2850  0375                     i1l1872:
  2851  0375  0851               	movf	___flmul@prod+3,w
  2852  0376  00BD               	movwf	?___flmul+3
  2853  0377  0850               	movf	___flmul@prod+2,w
  2854  0378  00BC               	movwf	?___flmul+2
  2855  0379  084F               	movf	___flmul@prod+1,w
  2856  037A  00BB               	movwf	?___flmul+1
  2857  037B  084E               	movf	___flmul@prod,w
  2858  037C  00BA               	movwf	?___flmul
  2859  037D                     i1l555:
  2860  037D  0008               	return
  2861  037E                     __end_of___flmul:
  2862                           
  2863                           	psect	text7
  2864  0C87                     __ptext7:	
  2865 ;; *************** function __Umul8_16 *****************
  2866 ;; Defined at:
  2867 ;;		line 4 in file "C:\Program Files\Microchip\xc8\v2.35\pic\sources\c90\common\Umul8_16.c"
  2868 ;; Parameters:    Size  Location     Type
  2869 ;;  multiplier      1    wreg     unsigned char 
  2870 ;;  multiplicand    1    0[COMMON] unsigned char 
  2871 ;; Auto vars:     Size  Location     Type
  2872 ;;  multiplier      1    8[COMMON] unsigned char 
  2873 ;;  word_mpld       2    6[COMMON] unsigned int 
  2874 ;;  product         2    4[COMMON] unsigned int 
  2875 ;; Return value:  Size  Location     Type
  2876 ;;                  2    0[COMMON] unsigned int 
  2877 ;; Registers used:
  2878 ;;		wreg, status,2, status,0
  2879 ;; Tracked objects:
  2880 ;;		On entry : 0/0
  2881 ;;		On exit  : 0/0
  2882 ;;		Unchanged: 0/0
  2883 ;; Data sizes:     COMMON   BANK0   BANK1   BANK3   BANK2
  2884 ;;      Params:         2       0       0       0       0
  2885 ;;      Locals:         5       0       0       0       0
  2886 ;;      Temps:          2       0       0       0       0
  2887 ;;      Totals:         9       0       0       0       0
  2888 ;;Total ram usage:        9 bytes
  2889 ;; Hardware stack levels used: 1
  2890 ;; This function calls:
  2891 ;;		Nothing
  2892 ;; This function is called by:
  2893 ;;		___flmul
  2894 ;; This function uses a non-reentrant model
  2895 ;;
  2896                           
  2897  0C87                     __Umul8_16:	
  2898                           ;psect for function __Umul8_16
  2899                           
  2900                           
  2901                           ;incstack = 0
  2902                           ; Regs used in __Umul8_16: [wreg+status,2+status,0]
  2903                           ;__Umul8_16@multiplier stored from wreg
  2904  0C87  00F8               	movwf	__Umul8_16@multiplier
  2905  0C88                     i1l1350:
  2906  0C88  01F4               	clrf	__Umul8_16@product
  2907  0C89  01F5               	clrf	__Umul8_16@product+1
  2908  0C8A                     i1l1352:
  2909  0C8A  0870               	movf	__Umul8_16@multiplicand,w
  2910  0C8B  00F2               	movwf	??__Umul8_16
  2911  0C8C  01F3               	clrf	??__Umul8_16+1
  2912  0C8D  0872               	movf	??__Umul8_16,w
  2913  0C8E  00F6               	movwf	__Umul8_16@word_mpld
  2914  0C8F  0873               	movf	??__Umul8_16+1,w
  2915  0C90  00F7               	movwf	__Umul8_16@word_mpld+1
  2916  0C91                     i1l1354:
  2917  0C91  1C78               	btfss	__Umul8_16@multiplier,0
  2918  0C92  2C94               	goto	u147_21
  2919  0C93  2C95               	goto	u147_20
  2920  0C94                     u147_21:
  2921  0C94  2C9B               	goto	i1l574
  2922  0C95                     u147_20:
  2923  0C95                     i1l1356:
  2924  0C95  0876               	movf	__Umul8_16@word_mpld,w
  2925  0C96  07F4               	addwf	__Umul8_16@product,f
  2926  0C97  1803               	skipnc
  2927  0C98  0AF5               	incf	__Umul8_16@product+1,f
  2928  0C99  0877               	movf	__Umul8_16@word_mpld+1,w
  2929  0C9A  07F5               	addwf	__Umul8_16@product+1,f
  2930  0C9B                     i1l574:
  2931  0C9B  3001               	movlw	1
  2932  0C9C                     u148_25:
  2933  0C9C  1003               	clrc
  2934  0C9D  0DF6               	rlf	__Umul8_16@word_mpld,f
  2935  0C9E  0DF7               	rlf	__Umul8_16@word_mpld+1,f
  2936  0C9F  3EFF               	addlw	-1
  2937  0CA0  1D03               	skipz
  2938  0CA1  2C9C               	goto	u148_25
  2939  0CA2  1003               	clrc
  2940  0CA3  0CF8               	rrf	__Umul8_16@multiplier,f
  2941  0CA4                     i1l1358:
  2942  0CA4  0878               	movf	__Umul8_16@multiplier,w
  2943  0CA5  1D03               	btfss	3,2
  2944  0CA6  2CA8               	goto	u149_21
  2945  0CA7  2CA9               	goto	u149_20
  2946  0CA8                     u149_21:
  2947  0CA8  2C91               	goto	i1l1354
  2948  0CA9                     u149_20:
  2949  0CA9                     i1l1360:
  2950  0CA9  0875               	movf	__Umul8_16@product+1,w
  2951  0CAA  00F1               	movwf	?__Umul8_16+1
  2952  0CAB  0874               	movf	__Umul8_16@product,w
  2953  0CAC  00F0               	movwf	?__Umul8_16
  2954  0CAD                     i1l576:
  2955  0CAD  0008               	return
  2956  0CAE                     __end_of__Umul8_16:
  2957                           
  2958                           	psect	text8
  2959  0606                     __ptext8:	
  2960 ;; *************** function ___fldiv *****************
  2961 ;; Defined at:
  2962 ;;		line 8 in file "C:\Program Files\Microchip\xc8\v2.35\pic\sources\c90\common\sprcdiv.c"
  2963 ;; Parameters:    Size  Location     Type
  2964 ;;  a               4    0[BANK0 ] unsigned int 
  2965 ;;  b               4    4[BANK0 ] unsigned int 
  2966 ;; Auto vars:     Size  Location     Type
  2967 ;;  grs             4   20[BANK0 ] unsigned long 
  2968 ;;  rem             4   13[BANK0 ] unsigned long 
  2969 ;;  new_exp         2   18[BANK0 ] int 
  2970 ;;  aexp            1   25[BANK0 ] unsigned char 
  2971 ;;  bexp            1   24[BANK0 ] unsigned char 
  2972 ;;  sign            1   17[BANK0 ] unsigned char 
  2973 ;; Return value:  Size  Location     Type
  2974 ;;                  4    0[BANK0 ] unsigned char 
  2975 ;; Registers used:
  2976 ;;		wreg, status,2, status,0, btemp+1
  2977 ;; Tracked objects:
  2978 ;;		On entry : 0/0
  2979 ;;		On exit  : 0/0
  2980 ;;		Unchanged: 0/0
  2981 ;; Data sizes:     COMMON   BANK0   BANK1   BANK3   BANK2
  2982 ;;      Params:         0       8       0       0       0
  2983 ;;      Locals:         0      13       0       0       0
  2984 ;;      Temps:          0       5       0       0       0
  2985 ;;      Totals:         0      26       0       0       0
  2986 ;;Total ram usage:       26 bytes
  2987 ;; Hardware stack levels used: 1
  2988 ;; This function calls:
  2989 ;;		Nothing
  2990 ;; This function is called by:
  2991 ;;		_map
  2992 ;; This function uses a non-reentrant model
  2993 ;;
  2994                           
  2995  0606                     ___fldiv:	
  2996                           ;psect for function ___fldiv
  2997                           
  2998  0606                     i1l1594:	
  2999                           ;incstack = 0
  3000                           ; Regs used in ___fldiv: [wreg+status,2+status,0+btemp+1]
  3001                           
  3002  0606  1283               	bcf	3,5	;RP0=0, select bank0
  3003  0607  1303               	bcf	3,6	;RP1=0, select bank0
  3004  0608  0827               	movf	___fldiv@b+3,w
  3005  0609  3980               	andlw	128
  3006  060A  00A8               	movwf	??___fldiv
  3007  060B  0828               	movf	??___fldiv,w
  3008  060C  00B1               	movwf	___fldiv@sign
  3009  060D                     i1l1596:
  3010  060D  0827               	movf	___fldiv@b+3,w
  3011  060E  00A8               	movwf	??___fldiv
  3012  060F  0728               	addwf	??___fldiv,w
  3013  0610  00A9               	movwf	??___fldiv+1
  3014  0611  0829               	movf	??___fldiv+1,w
  3015  0612  00B8               	movwf	___fldiv@bexp
  3016  0613                     i1l1598:
  3017  0613  1FA6               	btfss	___fldiv@b+2,7
  3018  0614  2E16               	goto	u206_21
  3019  0615  2E17               	goto	u206_20
  3020  0616                     u206_21:
  3021  0616  2E18               	goto	i1l1602
  3022  0617                     u206_20:
  3023  0617                     i1l1600:
  3024  0617  1438               	bsf	___fldiv@bexp,0
  3025  0618                     i1l1602:
  3026  0618  0838               	movf	___fldiv@bexp,w
  3027  0619  1903               	btfsc	3,2
  3028  061A  2E1C               	goto	u207_21
  3029  061B  2E1D               	goto	u207_20
  3030  061C                     u207_21:
  3031  061C  2E2D               	goto	i1l1612
  3032  061D                     u207_20:
  3033  061D                     i1l1604:
  3034  061D  0A38               	incf	___fldiv@bexp,w
  3035  061E  1D03               	btfss	3,2
  3036  061F  2E21               	goto	u208_21
  3037  0620  2E22               	goto	u208_20
  3038  0621                     u208_21:
  3039  0621  2E2A               	goto	i1l1608
  3040  0622                     u208_20:
  3041  0622                     i1l1606:
  3042  0622  3000               	movlw	0
  3043  0623  00A7               	movwf	___fldiv@b+3
  3044  0624  3000               	movlw	0
  3045  0625  00A6               	movwf	___fldiv@b+2
  3046  0626  3000               	movlw	0
  3047  0627  00A5               	movwf	___fldiv@b+1
  3048  0628  3000               	movlw	0
  3049  0629  00A4               	movwf	___fldiv@b
  3050  062A                     i1l1608:
  3051  062A  17A6               	bsf	___fldiv@b+2,7
  3052  062B                     i1l1610:
  3053  062B  01A7               	clrf	___fldiv@b+3
  3054  062C  2E35               	goto	i1l1614
  3055  062D                     i1l1612:
  3056  062D  3000               	movlw	0
  3057  062E  00A7               	movwf	___fldiv@b+3
  3058  062F  3000               	movlw	0
  3059  0630  00A6               	movwf	___fldiv@b+2
  3060  0631  3000               	movlw	0
  3061  0632  00A5               	movwf	___fldiv@b+1
  3062  0633  3000               	movlw	0
  3063  0634  00A4               	movwf	___fldiv@b
  3064  0635                     i1l1614:
  3065  0635  0823               	movf	___fldiv@a+3,w
  3066  0636  3980               	andlw	128
  3067  0637  00A8               	movwf	??___fldiv
  3068  0638  0828               	movf	??___fldiv,w
  3069  0639  06B1               	xorwf	___fldiv@sign,f
  3070  063A                     i1l1616:
  3071  063A  0823               	movf	___fldiv@a+3,w
  3072  063B  00A8               	movwf	??___fldiv
  3073  063C  0728               	addwf	??___fldiv,w
  3074  063D  00A9               	movwf	??___fldiv+1
  3075  063E  0829               	movf	??___fldiv+1,w
  3076  063F  00B9               	movwf	___fldiv@aexp
  3077  0640                     i1l1618:
  3078  0640  1FA2               	btfss	___fldiv@a+2,7
  3079  0641  2E43               	goto	u209_21
  3080  0642  2E44               	goto	u209_20
  3081  0643                     u209_21:
  3082  0643  2E45               	goto	i1l1622
  3083  0644                     u209_20:
  3084  0644                     i1l1620:
  3085  0644  1439               	bsf	___fldiv@aexp,0
  3086  0645                     i1l1622:
  3087  0645  0839               	movf	___fldiv@aexp,w
  3088  0646  1903               	btfsc	3,2
  3089  0647  2E49               	goto	u210_21
  3090  0648  2E4A               	goto	u210_20
  3091  0649                     u210_21:
  3092  0649  2E5A               	goto	i1l1632
  3093  064A                     u210_20:
  3094  064A                     i1l1624:
  3095  064A  0A39               	incf	___fldiv@aexp,w
  3096  064B  1D03               	btfss	3,2
  3097  064C  2E4E               	goto	u211_21
  3098  064D  2E4F               	goto	u211_20
  3099  064E                     u211_21:
  3100  064E  2E57               	goto	i1l1628
  3101  064F                     u211_20:
  3102  064F                     i1l1626:
  3103  064F  3000               	movlw	0
  3104  0650  00A3               	movwf	___fldiv@a+3
  3105  0651  3000               	movlw	0
  3106  0652  00A2               	movwf	___fldiv@a+2
  3107  0653  3000               	movlw	0
  3108  0654  00A1               	movwf	___fldiv@a+1
  3109  0655  3000               	movlw	0
  3110  0656  00A0               	movwf	___fldiv@a
  3111  0657                     i1l1628:
  3112  0657  17A2               	bsf	___fldiv@a+2,7
  3113  0658                     i1l1630:
  3114  0658  01A3               	clrf	___fldiv@a+3
  3115  0659  2E62               	goto	i1l515
  3116  065A                     i1l1632:
  3117  065A  3000               	movlw	0
  3118  065B  00A3               	movwf	___fldiv@a+3
  3119  065C  3000               	movlw	0
  3120  065D  00A2               	movwf	___fldiv@a+2
  3121  065E  3000               	movlw	0
  3122  065F  00A1               	movwf	___fldiv@a+1
  3123  0660  3000               	movlw	0
  3124  0661  00A0               	movwf	___fldiv@a
  3125  0662                     i1l515:
  3126  0662  0823               	movf	___fldiv@a+3,w
  3127  0663  0422               	iorwf	___fldiv@a+2,w
  3128  0664  0421               	iorwf	___fldiv@a+1,w
  3129  0665  0420               	iorwf	___fldiv@a,w
  3130  0666  1D03               	skipz
  3131  0667  2E69               	goto	u212_21
  3132  0668  2E6A               	goto	u212_20
  3133  0669                     u212_21:
  3134  0669  2E83               	goto	i1l1642
  3135  066A                     u212_20:
  3136  066A                     i1l1634:
  3137  066A  3000               	movlw	0
  3138  066B  00A7               	movwf	___fldiv@b+3
  3139  066C  3000               	movlw	0
  3140  066D  00A6               	movwf	___fldiv@b+2
  3141  066E  3000               	movlw	0
  3142  066F  00A5               	movwf	___fldiv@b+1
  3143  0670  3000               	movlw	0
  3144  0671  00A4               	movwf	___fldiv@b
  3145  0672  3080               	movlw	128
  3146  0673  04A6               	iorwf	___fldiv@b+2,f
  3147  0674  307F               	movlw	127
  3148  0675  04A7               	iorwf	___fldiv@b+3,f
  3149  0676                     i1l1636:
  3150  0676  0831               	movf	___fldiv@sign,w
  3151  0677  00A8               	movwf	??___fldiv
  3152  0678  0828               	movf	??___fldiv,w
  3153  0679  04A7               	iorwf	___fldiv@b+3,f
  3154  067A                     i1l1638:
  3155  067A  0827               	movf	___fldiv@b+3,w
  3156  067B  00A3               	movwf	?___fldiv+3
  3157  067C  0826               	movf	___fldiv@b+2,w
  3158  067D  00A2               	movwf	?___fldiv+2
  3159  067E  0825               	movf	___fldiv@b+1,w
  3160  067F  00A1               	movwf	?___fldiv+1
  3161  0680  0824               	movf	___fldiv@b,w
  3162  0681  00A0               	movwf	?___fldiv
  3163  0682  2FE2               	goto	i1l517
  3164  0683                     i1l1642:
  3165  0683  0838               	movf	___fldiv@bexp,w
  3166  0684  1D03               	btfss	3,2
  3167  0685  2E87               	goto	u213_21
  3168  0686  2E88               	goto	u213_20
  3169  0687                     u213_21:
  3170  0687  2E91               	goto	i1l1648
  3171  0688                     u213_20:
  3172  0688                     i1l1644:
  3173  0688  3000               	movlw	0
  3174  0689  00A3               	movwf	?___fldiv+3
  3175  068A  3000               	movlw	0
  3176  068B  00A2               	movwf	?___fldiv+2
  3177  068C  3000               	movlw	0
  3178  068D  00A1               	movwf	?___fldiv+1
  3179  068E  3000               	movlw	0
  3180  068F  00A0               	movwf	?___fldiv
  3181  0690  2FE2               	goto	i1l517
  3182  0691                     i1l1648:
  3183  0691  0838               	movf	___fldiv@bexp,w
  3184  0692  00A8               	movwf	??___fldiv
  3185  0693  01A9               	clrf	??___fldiv+1
  3186  0694  0829               	movf	??___fldiv+1,w
  3187  0695  00AB               	movwf	??___fldiv+3
  3188  0696  0839               	movf	___fldiv@aexp,w
  3189  0697  0228               	subwf	??___fldiv,w
  3190  0698  00AA               	movwf	??___fldiv+2
  3191  0699  1C03               	skipc
  3192  069A  03AB               	decf	??___fldiv+3,f
  3193  069B  082A               	movf	??___fldiv+2,w
  3194  069C  3E7F               	addlw	127
  3195  069D  00B2               	movwf	___fldiv@new_exp
  3196  069E  082B               	movf	??___fldiv+3,w
  3197  069F  1803               	skipnc
  3198  06A0  3E01               	addlw	1
  3199  06A1  3E00               	addlw	0
  3200  06A2  00B3               	movwf	___fldiv@new_exp+1
  3201  06A3                     i1l1650:
  3202  06A3  0827               	movf	___fldiv@b+3,w
  3203  06A4  00B0               	movwf	___fldiv@rem+3
  3204  06A5  0826               	movf	___fldiv@b+2,w
  3205  06A6  00AF               	movwf	___fldiv@rem+2
  3206  06A7  0825               	movf	___fldiv@b+1,w
  3207  06A8  00AE               	movwf	___fldiv@rem+1
  3208  06A9  0824               	movf	___fldiv@b,w
  3209  06AA  00AD               	movwf	___fldiv@rem
  3210  06AB                     i1l1652:
  3211  06AB  3000               	movlw	0
  3212  06AC  00A7               	movwf	___fldiv@b+3
  3213  06AD  3000               	movlw	0
  3214  06AE  00A6               	movwf	___fldiv@b+2
  3215  06AF  3000               	movlw	0
  3216  06B0  00A5               	movwf	___fldiv@b+1
  3217  06B1  3000               	movlw	0
  3218  06B2  00A4               	movwf	___fldiv@b
  3219  06B3                     i1l1654:
  3220  06B3  3000               	movlw	0
  3221  06B4  00B7               	movwf	___fldiv@grs+3
  3222  06B5  3000               	movlw	0
  3223  06B6  00B6               	movwf	___fldiv@grs+2
  3224  06B7  3000               	movlw	0
  3225  06B8  00B5               	movwf	___fldiv@grs+1
  3226  06B9  3000               	movlw	0
  3227  06BA  00B4               	movwf	___fldiv@grs
  3228  06BB                     i1l1656:
  3229  06BB  01B9               	clrf	___fldiv@aexp
  3230  06BC  2F07               	goto	i1l1676
  3231  06BD                     i1l1658:
  3232  06BD  0839               	movf	___fldiv@aexp,w
  3233  06BE  1903               	btfsc	3,2
  3234  06BF  2EC1               	goto	u214_21
  3235  06C0  2EC2               	goto	u214_20
  3236  06C1                     u214_21:
  3237  06C1  2EE2               	goto	i1l1668
  3238  06C2                     u214_20:
  3239  06C2                     i1l1660:
  3240  06C2  3001               	movlw	1
  3241  06C3  00A8               	movwf	??___fldiv
  3242  06C4                     u215_25:
  3243  06C4  1003               	clrc
  3244  06C5  0DAD               	rlf	___fldiv@rem,f
  3245  06C6  0DAE               	rlf	___fldiv@rem+1,f
  3246  06C7  0DAF               	rlf	___fldiv@rem+2,f
  3247  06C8  0DB0               	rlf	___fldiv@rem+3,f
  3248  06C9  0BA8               	decfsz	??___fldiv,f
  3249  06CA  2EC4               	goto	u215_25
  3250  06CB  3001               	movlw	1
  3251  06CC  00A8               	movwf	??___fldiv
  3252  06CD                     u216_25:
  3253  06CD  1003               	clrc
  3254  06CE  0DA4               	rlf	___fldiv@b,f
  3255  06CF  0DA5               	rlf	___fldiv@b+1,f
  3256  06D0  0DA6               	rlf	___fldiv@b+2,f
  3257  06D1  0DA7               	rlf	___fldiv@b+3,f
  3258  06D2  0BA8               	decfsz	??___fldiv,f
  3259  06D3  2ECD               	goto	u216_25
  3260  06D4                     i1l1662:
  3261  06D4  1FB7               	btfss	___fldiv@grs+3,7
  3262  06D5  2ED7               	goto	u217_21
  3263  06D6  2ED8               	goto	u217_20
  3264  06D7                     u217_21:
  3265  06D7  2ED9               	goto	i1l1666
  3266  06D8                     u217_20:
  3267  06D8                     i1l1664:
  3268  06D8  1424               	bsf	___fldiv@b,0
  3269  06D9                     i1l1666:
  3270  06D9  3001               	movlw	1
  3271  06DA  00A8               	movwf	??___fldiv
  3272  06DB                     u218_25:
  3273  06DB  1003               	clrc
  3274  06DC  0DB4               	rlf	___fldiv@grs,f
  3275  06DD  0DB5               	rlf	___fldiv@grs+1,f
  3276  06DE  0DB6               	rlf	___fldiv@grs+2,f
  3277  06DF  0DB7               	rlf	___fldiv@grs+3,f
  3278  06E0  0BA8               	decfsz	??___fldiv,f
  3279  06E1  2EDB               	goto	u218_25
  3280  06E2                     i1l1668:
  3281  06E2  0823               	movf	___fldiv@a+3,w
  3282  06E3  0230               	subwf	___fldiv@rem+3,w
  3283  06E4  1D03               	skipz
  3284  06E5  2EF0               	goto	u219_25
  3285  06E6  0822               	movf	___fldiv@a+2,w
  3286  06E7  022F               	subwf	___fldiv@rem+2,w
  3287  06E8  1D03               	skipz
  3288  06E9  2EF0               	goto	u219_25
  3289  06EA  0821               	movf	___fldiv@a+1,w
  3290  06EB  022E               	subwf	___fldiv@rem+1,w
  3291  06EC  1D03               	skipz
  3292  06ED  2EF0               	goto	u219_25
  3293  06EE  0820               	movf	___fldiv@a,w
  3294  06EF  022D               	subwf	___fldiv@rem,w
  3295  06F0                     u219_25:
  3296  06F0  1C03               	skipc
  3297  06F1  2EF3               	goto	u219_21
  3298  06F2  2EF4               	goto	u219_20
  3299  06F3                     u219_21:
  3300  06F3  2F03               	goto	i1l1674
  3301  06F4                     u219_20:
  3302  06F4                     i1l1670:
  3303  06F4  1737               	bsf	___fldiv@grs+3,6
  3304  06F5                     i1l1672:
  3305  06F5  0820               	movf	___fldiv@a,w
  3306  06F6  02AD               	subwf	___fldiv@rem,f
  3307  06F7  0821               	movf	___fldiv@a+1,w
  3308  06F8  1C03               	skipc
  3309  06F9  0F21               	incfsz	___fldiv@a+1,w
  3310  06FA  02AE               	subwf	___fldiv@rem+1,f
  3311  06FB  0822               	movf	___fldiv@a+2,w
  3312  06FC  1C03               	skipc
  3313  06FD  0F22               	incfsz	___fldiv@a+2,w
  3314  06FE  02AF               	subwf	___fldiv@rem+2,f
  3315  06FF  0823               	movf	___fldiv@a+3,w
  3316  0700  1C03               	skipc
  3317  0701  0F23               	incfsz	___fldiv@a+3,w
  3318  0702  02B0               	subwf	___fldiv@rem+3,f
  3319  0703                     i1l1674:
  3320  0703  3001               	movlw	1
  3321  0704  00A8               	movwf	??___fldiv
  3322  0705  0828               	movf	??___fldiv,w
  3323  0706  07B9               	addwf	___fldiv@aexp,f
  3324  0707                     i1l1676:
  3325  0707  301A               	movlw	26
  3326  0708  0239               	subwf	___fldiv@aexp,w
  3327  0709  1C03               	skipc
  3328  070A  2F0C               	goto	u220_21
  3329  070B  2F0D               	goto	u220_20
  3330  070C                     u220_21:
  3331  070C  2EBD               	goto	i1l1658
  3332  070D                     u220_20:
  3333  070D                     i1l1678:
  3334  070D  0830               	movf	___fldiv@rem+3,w
  3335  070E  042F               	iorwf	___fldiv@rem+2,w
  3336  070F  042E               	iorwf	___fldiv@rem+1,w
  3337  0710  042D               	iorwf	___fldiv@rem,w
  3338  0711  1903               	skipnz
  3339  0712  2F14               	goto	u221_21
  3340  0713  2F15               	goto	u221_20
  3341  0714                     u221_21:
  3342  0714  2F34               	goto	i1l1692
  3343  0715                     u221_20:
  3344  0715                     i1l1680:
  3345  0715  1434               	bsf	___fldiv@grs,0
  3346  0716  2F34               	goto	i1l1692
  3347  0717                     i1l1682:
  3348  0717  3001               	movlw	1
  3349  0718  00A8               	movwf	??___fldiv
  3350  0719                     u222_25:
  3351  0719  1003               	clrc
  3352  071A  0DA4               	rlf	___fldiv@b,f
  3353  071B  0DA5               	rlf	___fldiv@b+1,f
  3354  071C  0DA6               	rlf	___fldiv@b+2,f
  3355  071D  0DA7               	rlf	___fldiv@b+3,f
  3356  071E  0BA8               	decfsz	??___fldiv,f
  3357  071F  2F19               	goto	u222_25
  3358  0720                     i1l1684:
  3359  0720  1FB7               	btfss	___fldiv@grs+3,7
  3360  0721  2F23               	goto	u223_21
  3361  0722  2F24               	goto	u223_20
  3362  0723                     u223_21:
  3363  0723  2F25               	goto	i1l1688
  3364  0724                     u223_20:
  3365  0724                     i1l1686:
  3366  0724  1424               	bsf	___fldiv@b,0
  3367  0725                     i1l1688:
  3368  0725  3001               	movlw	1
  3369  0726  00A8               	movwf	??___fldiv
  3370  0727                     u224_25:
  3371  0727  1003               	clrc
  3372  0728  0DB4               	rlf	___fldiv@grs,f
  3373  0729  0DB5               	rlf	___fldiv@grs+1,f
  3374  072A  0DB6               	rlf	___fldiv@grs+2,f
  3375  072B  0DB7               	rlf	___fldiv@grs+3,f
  3376  072C  0BA8               	decfsz	??___fldiv,f
  3377  072D  2F27               	goto	u224_25
  3378  072E                     i1l1690:
  3379  072E  30FF               	movlw	255
  3380  072F  07B2               	addwf	___fldiv@new_exp,f
  3381  0730  1803               	skipnc
  3382  0731  0AB3               	incf	___fldiv@new_exp+1,f
  3383  0732  30FF               	movlw	255
  3384  0733  07B3               	addwf	___fldiv@new_exp+1,f
  3385  0734                     i1l1692:
  3386  0734  1FA6               	btfss	___fldiv@b+2,7
  3387  0735  2F37               	goto	u225_21
  3388  0736  2F38               	goto	u225_20
  3389  0737                     u225_21:
  3390  0737  2F17               	goto	i1l1682
  3391  0738                     u225_20:
  3392  0738                     i1l1694:
  3393  0738  01B9               	clrf	___fldiv@aexp
  3394  0739                     i1l1696:
  3395  0739  1FB7               	btfss	___fldiv@grs+3,7
  3396  073A  2F3C               	goto	u226_21
  3397  073B  2F3D               	goto	u226_20
  3398  073C                     u226_21:
  3399  073C  2F59               	goto	i1l1704
  3400  073D                     u226_20:
  3401  073D                     i1l1698:
  3402  073D  30FF               	movlw	255
  3403  073E  0534               	andwf	___fldiv@grs,w
  3404  073F  00A8               	movwf	??___fldiv
  3405  0740  30FF               	movlw	255
  3406  0741  0535               	andwf	___fldiv@grs+1,w
  3407  0742  00A9               	movwf	??___fldiv+1
  3408  0743  30FF               	movlw	255
  3409  0744  0536               	andwf	___fldiv@grs+2,w
  3410  0745  00AA               	movwf	??___fldiv+2
  3411  0746  307F               	movlw	127
  3412  0747  0537               	andwf	___fldiv@grs+3,w
  3413  0748  00AB               	movwf	??___fldiv+3
  3414  0749  082B               	movf	??___fldiv+3,w
  3415  074A  042A               	iorwf	??___fldiv+2,w
  3416  074B  0429               	iorwf	??___fldiv+1,w
  3417  074C  0428               	iorwf	??___fldiv,w
  3418  074D  1903               	skipnz
  3419  074E  2F50               	goto	u227_21
  3420  074F  2F51               	goto	u227_20
  3421  0750                     u227_21:
  3422  0750  2F54               	goto	i1l531
  3423  0751                     u227_20:
  3424  0751                     i1l1700:
  3425  0751  01B9               	clrf	___fldiv@aexp
  3426  0752  0AB9               	incf	___fldiv@aexp,f
  3427  0753  2F59               	goto	i1l1704
  3428  0754                     i1l531:
  3429  0754  1C24               	btfss	___fldiv@b,0
  3430  0755  2F57               	goto	u228_21
  3431  0756  2F58               	goto	u228_20
  3432  0757                     u228_21:
  3433  0757  2F59               	goto	i1l1704
  3434  0758                     u228_20:
  3435  0758  2F51               	goto	i1l1700
  3436  0759                     i1l1704:
  3437  0759  0839               	movf	___fldiv@aexp,w
  3438  075A  1903               	btfsc	3,2
  3439  075B  2F5D               	goto	u229_21
  3440  075C  2F5E               	goto	u229_20
  3441  075D                     u229_21:
  3442  075D  2F8F               	goto	i1l1714
  3443  075E                     u229_20:
  3444  075E                     i1l1706:
  3445  075E  3001               	movlw	1
  3446  075F  07A4               	addwf	___fldiv@b,f
  3447  0760  3000               	movlw	0
  3448  0761  1803               	skipnc
  3449  0762  3001               	movlw	1
  3450  0763  07A5               	addwf	___fldiv@b+1,f
  3451  0764  3000               	movlw	0
  3452  0765  1803               	skipnc
  3453  0766  3001               	movlw	1
  3454  0767  07A6               	addwf	___fldiv@b+2,f
  3455  0768  3000               	movlw	0
  3456  0769  1803               	skipnc
  3457  076A  3001               	movlw	1
  3458  076B  07A7               	addwf	___fldiv@b+3,f
  3459  076C                     i1l1708:
  3460  076C  1C27               	btfss	___fldiv@b+3,0
  3461  076D  2F6F               	goto	u230_21
  3462  076E  2F70               	goto	u230_20
  3463  076F                     u230_21:
  3464  076F  2F8F               	goto	i1l1714
  3465  0770                     u230_20:
  3466  0770                     i1l1710:
  3467  0770  0824               	movf	___fldiv@b,w
  3468  0771  00A8               	movwf	??___fldiv
  3469  0772  0825               	movf	___fldiv@b+1,w
  3470  0773  00A9               	movwf	??___fldiv+1
  3471  0774  0826               	movf	___fldiv@b+2,w
  3472  0775  00AA               	movwf	??___fldiv+2
  3473  0776  0827               	movf	___fldiv@b+3,w
  3474  0777  00AB               	movwf	??___fldiv+3
  3475  0778  3001               	movlw	1
  3476  0779  00AC               	movwf	??___fldiv+4
  3477  077A                     u231_25:
  3478  077A  0D2B               	rlf	??___fldiv+3,w
  3479  077B  0CAB               	rrf	??___fldiv+3,f
  3480  077C  0CAA               	rrf	??___fldiv+2,f
  3481  077D  0CA9               	rrf	??___fldiv+1,f
  3482  077E  0CA8               	rrf	??___fldiv,f
  3483  077F                     u231_20:
  3484  077F  0BAC               	decfsz	??___fldiv+4,f
  3485  0780  2F7A               	goto	u231_25
  3486  0781  082B               	movf	??___fldiv+3,w
  3487  0782  00A7               	movwf	___fldiv@b+3
  3488  0783  082A               	movf	??___fldiv+2,w
  3489  0784  00A6               	movwf	___fldiv@b+2
  3490  0785  0829               	movf	??___fldiv+1,w
  3491  0786  00A5               	movwf	___fldiv@b+1
  3492  0787  0828               	movf	??___fldiv,w
  3493  0788  00A4               	movwf	___fldiv@b
  3494  0789                     i1l1712:
  3495  0789  3001               	movlw	1
  3496  078A  07B2               	addwf	___fldiv@new_exp,f
  3497  078B  1803               	skipnc
  3498  078C  0AB3               	incf	___fldiv@new_exp+1,f
  3499  078D  3000               	movlw	0
  3500  078E  07B3               	addwf	___fldiv@new_exp+1,f
  3501  078F                     i1l1714:
  3502  078F  0833               	movf	___fldiv@new_exp+1,w
  3503  0790  3A80               	xorlw	128
  3504  0791  00FF               	movwf	btemp+1
  3505  0792  3080               	movlw	128
  3506  0793  027F               	subwf	btemp+1,w
  3507  0794  1D03               	skipz
  3508  0795  2F98               	goto	u232_25
  3509  0796  30FF               	movlw	255
  3510  0797  0232               	subwf	___fldiv@new_exp,w
  3511  0798                     u232_25:
  3512  0798  1C03               	skipc
  3513  0799  2F9B               	goto	u232_21
  3514  079A  2F9C               	goto	u232_20
  3515  079B                     u232_21:
  3516  079B  2FAA               	goto	i1l1718
  3517  079C                     u232_20:
  3518  079C                     i1l1716:
  3519  079C  30FF               	movlw	255
  3520  079D  1283               	bcf	3,5	;RP0=0, select bank0
  3521  079E  1303               	bcf	3,6	;RP1=0, select bank0
  3522  079F  00B2               	movwf	___fldiv@new_exp
  3523  07A0  3000               	movlw	0
  3524  07A1  00B3               	movwf	___fldiv@new_exp+1
  3525  07A2  3000               	movlw	0
  3526  07A3  00A7               	movwf	___fldiv@b+3
  3527  07A4  3000               	movlw	0
  3528  07A5  00A6               	movwf	___fldiv@b+2
  3529  07A6  3000               	movlw	0
  3530  07A7  00A5               	movwf	___fldiv@b+1
  3531  07A8  3000               	movlw	0
  3532  07A9  00A4               	movwf	___fldiv@b
  3533  07AA                     i1l1718:
  3534  07AA  1283               	bcf	3,5	;RP0=0, select bank0
  3535  07AB  1303               	bcf	3,6	;RP1=0, select bank0
  3536  07AC  0833               	movf	___fldiv@new_exp+1,w
  3537  07AD  3A80               	xorlw	128
  3538  07AE  00FF               	movwf	btemp+1
  3539  07AF  3080               	movlw	128
  3540  07B0  027F               	subwf	btemp+1,w
  3541  07B1  1D03               	skipz
  3542  07B2  2FB5               	goto	u233_25
  3543  07B3  3001               	movlw	1
  3544  07B4  0232               	subwf	___fldiv@new_exp,w
  3545  07B5                     u233_25:
  3546  07B5  1803               	skipnc
  3547  07B6  2FB8               	goto	u233_21
  3548  07B7  2FB9               	goto	u233_20
  3549  07B8                     u233_21:
  3550  07B8  2FC6               	goto	i1l537
  3551  07B9                     u233_20:
  3552  07B9                     i1l1720:
  3553  07B9  1283               	bcf	3,5	;RP0=0, select bank0
  3554  07BA  1303               	bcf	3,6	;RP1=0, select bank0
  3555  07BB  01B2               	clrf	___fldiv@new_exp
  3556  07BC  01B3               	clrf	___fldiv@new_exp+1
  3557  07BD                     i1l1722:
  3558  07BD  3000               	movlw	0
  3559  07BE  00A7               	movwf	___fldiv@b+3
  3560  07BF  3000               	movlw	0
  3561  07C0  00A6               	movwf	___fldiv@b+2
  3562  07C1  3000               	movlw	0
  3563  07C2  00A5               	movwf	___fldiv@b+1
  3564  07C3  3000               	movlw	0
  3565  07C4  00A4               	movwf	___fldiv@b
  3566  07C5                     i1l1724:
  3567  07C5  01B1               	clrf	___fldiv@sign
  3568  07C6                     i1l537:
  3569  07C6  1283               	bcf	3,5	;RP0=0, select bank0
  3570  07C7  1303               	bcf	3,6	;RP1=0, select bank0
  3571  07C8  0832               	movf	___fldiv@new_exp,w
  3572  07C9  00A8               	movwf	??___fldiv
  3573  07CA  0828               	movf	??___fldiv,w
  3574  07CB  00B8               	movwf	___fldiv@bexp
  3575  07CC                     i1l1726:
  3576  07CC  1C38               	btfss	___fldiv@bexp,0
  3577  07CD  2FCF               	goto	u234_21
  3578  07CE  2FD0               	goto	u234_20
  3579  07CF                     u234_21:
  3580  07CF  2FD2               	goto	i1l1730
  3581  07D0                     u234_20:
  3582  07D0                     i1l1728:
  3583  07D0  17A6               	bsf	___fldiv@b+2,7
  3584  07D1  2FD6               	goto	i1l539
  3585  07D2                     i1l1730:
  3586  07D2  307F               	movlw	127
  3587  07D3  00A8               	movwf	??___fldiv
  3588  07D4  0828               	movf	??___fldiv,w
  3589  07D5  05A6               	andwf	___fldiv@b+2,f
  3590  07D6                     i1l539:
  3591  07D6  0838               	movf	___fldiv@bexp,w
  3592  07D7  00A8               	movwf	??___fldiv
  3593  07D8  1003               	clrc
  3594  07D9  0C28               	rrf	??___fldiv,w
  3595  07DA  00A9               	movwf	??___fldiv+1
  3596  07DB  0829               	movf	??___fldiv+1,w
  3597  07DC  00A7               	movwf	___fldiv@b+3
  3598  07DD  0831               	movf	___fldiv@sign,w
  3599  07DE  00A8               	movwf	??___fldiv
  3600  07DF  0828               	movf	??___fldiv,w
  3601  07E0  04A7               	iorwf	___fldiv@b+3,f
  3602  07E1  2E7A               	goto	i1l1638
  3603  07E2                     i1l517:
  3604  07E2  0008               	return
  3605  07E3                     __end_of___fldiv:
  3606                           
  3607                           	psect	text9
  3608  037E                     __ptext9:	
  3609 ;; *************** function ___fladd *****************
  3610 ;; Defined at:
  3611 ;;		line 10 in file "C:\Program Files\Microchip\xc8\v2.35\pic\sources\c90\common\sprcadd.c"
  3612 ;; Parameters:    Size  Location     Type
  3613 ;;  b               4   52[BANK0 ] unsigned char 
  3614 ;;  a               4   56[BANK0 ] unsigned char 
  3615 ;; Auto vars:     Size  Location     Type
  3616 ;;  grs             1   71[BANK0 ] unsigned char 
  3617 ;;  bexp            1   70[BANK0 ] unsigned char 
  3618 ;;  aexp            1   69[BANK0 ] unsigned char 
  3619 ;;  signs           1   68[BANK0 ] unsigned char 
  3620 ;; Return value:  Size  Location     Type
  3621 ;;                  4   52[BANK0 ] unsigned char 
  3622 ;; Registers used:
  3623 ;;		wreg, status,2, status,0, btemp+1
  3624 ;; Tracked objects:
  3625 ;;		On entry : 0/0
  3626 ;;		On exit  : 0/0
  3627 ;;		Unchanged: 0/0
  3628 ;; Data sizes:     COMMON   BANK0   BANK1   BANK3   BANK2
  3629 ;;      Params:         0       8       0       0       0
  3630 ;;      Locals:         0       4       0       0       0
  3631 ;;      Temps:          0       8       0       0       0
  3632 ;;      Totals:         0      20       0       0       0
  3633 ;;Total ram usage:       20 bytes
  3634 ;; Hardware stack levels used: 1
  3635 ;; This function calls:
  3636 ;;		Nothing
  3637 ;; This function is called by:
  3638 ;;		_map
  3639 ;; This function uses a non-reentrant model
  3640 ;;
  3641                           
  3642  037E                     ___fladd:	
  3643                           ;psect for function ___fladd
  3644                           
  3645  037E                     i1l1400:	
  3646                           ;incstack = 0
  3647                           ; Regs used in ___fladd: [wreg+status,2+status,0+btemp+1]
  3648                           
  3649  037E  1283               	bcf	3,5	;RP0=0, select bank0
  3650  037F  1303               	bcf	3,6	;RP1=0, select bank0
  3651  0380  0857               	movf	___fladd@b+3,w
  3652  0381  3980               	andlw	128
  3653  0382  00DC               	movwf	??___fladd
  3654  0383  085C               	movf	??___fladd,w
  3655  0384  00E4               	movwf	___fladd@signs
  3656  0385                     i1l1402:
  3657  0385  0857               	movf	___fladd@b+3,w
  3658  0386  00DC               	movwf	??___fladd
  3659  0387  075C               	addwf	??___fladd,w
  3660  0388  00DD               	movwf	??___fladd+1
  3661  0389  085D               	movf	??___fladd+1,w
  3662  038A  00E6               	movwf	___fladd@bexp
  3663  038B                     i1l1404:
  3664  038B  1FD6               	btfss	___fladd@b+2,7
  3665  038C  2B8E               	goto	u160_21
  3666  038D  2B8F               	goto	u160_20
  3667  038E                     u160_21:
  3668  038E  2B90               	goto	i1l1408
  3669  038F                     u160_20:
  3670  038F                     i1l1406:
  3671  038F  1466               	bsf	___fladd@bexp,0
  3672  0390                     i1l1408:
  3673  0390  0866               	movf	___fladd@bexp,w
  3674  0391  1903               	btfsc	3,2
  3675  0392  2B94               	goto	u161_21
  3676  0393  2B95               	goto	u161_20
  3677  0394                     u161_21:
  3678  0394  2BA5               	goto	i1l1418
  3679  0395                     u161_20:
  3680  0395                     i1l1410:
  3681  0395  0A66               	incf	___fladd@bexp,w
  3682  0396  1D03               	btfss	3,2
  3683  0397  2B99               	goto	u162_21
  3684  0398  2B9A               	goto	u162_20
  3685  0399                     u162_21:
  3686  0399  2BA2               	goto	i1l1414
  3687  039A                     u162_20:
  3688  039A                     i1l1412:
  3689  039A  3000               	movlw	0
  3690  039B  00D7               	movwf	___fladd@b+3
  3691  039C  3000               	movlw	0
  3692  039D  00D6               	movwf	___fladd@b+2
  3693  039E  3000               	movlw	0
  3694  039F  00D5               	movwf	___fladd@b+1
  3695  03A0  3000               	movlw	0
  3696  03A1  00D4               	movwf	___fladd@b
  3697  03A2                     i1l1414:
  3698  03A2  17D6               	bsf	___fladd@b+2,7
  3699  03A3                     i1l1416:
  3700  03A3  01D7               	clrf	___fladd@b+3
  3701  03A4  2BAD               	goto	i1l1420
  3702  03A5                     i1l1418:
  3703  03A5  3000               	movlw	0
  3704  03A6  00D7               	movwf	___fladd@b+3
  3705  03A7  3000               	movlw	0
  3706  03A8  00D6               	movwf	___fladd@b+2
  3707  03A9  3000               	movlw	0
  3708  03AA  00D5               	movwf	___fladd@b+1
  3709  03AB  3000               	movlw	0
  3710  03AC  00D4               	movwf	___fladd@b
  3711  03AD                     i1l1420:
  3712  03AD  085B               	movf	___fladd@a+3,w
  3713  03AE  3980               	andlw	128
  3714  03AF  00DC               	movwf	??___fladd
  3715  03B0  085C               	movf	??___fladd,w
  3716  03B1  00E5               	movwf	___fladd@aexp
  3717  03B2                     i1l1422:
  3718  03B2  0865               	movf	___fladd@aexp,w
  3719  03B3  0664               	xorwf	___fladd@signs,w
  3720  03B4  1903               	skipnz
  3721  03B5  2BB7               	goto	u163_21
  3722  03B6  2BB8               	goto	u163_20
  3723  03B7                     u163_21:
  3724  03B7  2BB9               	goto	i1l1426
  3725  03B8                     u163_20:
  3726  03B8                     i1l1424:
  3727  03B8  1764               	bsf	___fladd@signs,6
  3728  03B9                     i1l1426:
  3729  03B9  085B               	movf	___fladd@a+3,w
  3730  03BA  00DC               	movwf	??___fladd
  3731  03BB  075C               	addwf	??___fladd,w
  3732  03BC  00DD               	movwf	??___fladd+1
  3733  03BD  085D               	movf	??___fladd+1,w
  3734  03BE  00E5               	movwf	___fladd@aexp
  3735  03BF                     i1l1428:
  3736  03BF  1FDA               	btfss	___fladd@a+2,7
  3737  03C0  2BC2               	goto	u164_21
  3738  03C1  2BC3               	goto	u164_20
  3739  03C2                     u164_21:
  3740  03C2  2BC4               	goto	i1l1432
  3741  03C3                     u164_20:
  3742  03C3                     i1l1430:
  3743  03C3  1465               	bsf	___fladd@aexp,0
  3744  03C4                     i1l1432:
  3745  03C4  0865               	movf	___fladd@aexp,w
  3746  03C5  1903               	btfsc	3,2
  3747  03C6  2BC8               	goto	u165_21
  3748  03C7  2BC9               	goto	u165_20
  3749  03C8                     u165_21:
  3750  03C8  2BD9               	goto	i1l1442
  3751  03C9                     u165_20:
  3752  03C9                     i1l1434:
  3753  03C9  0A65               	incf	___fladd@aexp,w
  3754  03CA  1D03               	btfss	3,2
  3755  03CB  2BCD               	goto	u166_21
  3756  03CC  2BCE               	goto	u166_20
  3757  03CD                     u166_21:
  3758  03CD  2BD6               	goto	i1l1438
  3759  03CE                     u166_20:
  3760  03CE                     i1l1436:
  3761  03CE  3000               	movlw	0
  3762  03CF  00DB               	movwf	___fladd@a+3
  3763  03D0  3000               	movlw	0
  3764  03D1  00DA               	movwf	___fladd@a+2
  3765  03D2  3000               	movlw	0
  3766  03D3  00D9               	movwf	___fladd@a+1
  3767  03D4  3000               	movlw	0
  3768  03D5  00D8               	movwf	___fladd@a
  3769  03D6                     i1l1438:
  3770  03D6  17DA               	bsf	___fladd@a+2,7
  3771  03D7                     i1l1440:
  3772  03D7  01DB               	clrf	___fladd@a+3
  3773  03D8  2BE1               	goto	i1l459
  3774  03D9                     i1l1442:
  3775  03D9  3000               	movlw	0
  3776  03DA  00DB               	movwf	___fladd@a+3
  3777  03DB  3000               	movlw	0
  3778  03DC  00DA               	movwf	___fladd@a+2
  3779  03DD  3000               	movlw	0
  3780  03DE  00D9               	movwf	___fladd@a+1
  3781  03DF  3000               	movlw	0
  3782  03E0  00D8               	movwf	___fladd@a
  3783  03E1                     i1l459:
  3784  03E1  0866               	movf	___fladd@bexp,w
  3785  03E2  0265               	subwf	___fladd@aexp,w
  3786  03E3  1803               	skipnc
  3787  03E4  2BE6               	goto	u167_21
  3788  03E5  2BE7               	goto	u167_20
  3789  03E6                     u167_21:
  3790  03E6  2C2B               	goto	i1l1478
  3791  03E7                     u167_20:
  3792  03E7                     i1l1444:
  3793  03E7  1F64               	btfss	___fladd@signs,6
  3794  03E8  2BEA               	goto	u168_21
  3795  03E9  2BEB               	goto	u168_20
  3796  03EA                     u168_21:
  3797  03EA  2BEF               	goto	i1l1448
  3798  03EB                     u168_20:
  3799  03EB                     i1l1446:
  3800  03EB  3080               	movlw	128
  3801  03EC  00DC               	movwf	??___fladd
  3802  03ED  085C               	movf	??___fladd,w
  3803  03EE  06E4               	xorwf	___fladd@signs,f
  3804  03EF                     i1l1448:
  3805  03EF  0866               	movf	___fladd@bexp,w
  3806  03F0  00DC               	movwf	??___fladd
  3807  03F1  085C               	movf	??___fladd,w
  3808  03F2  00E7               	movwf	___fladd@grs
  3809  03F3                     i1l1450:
  3810  03F3  0865               	movf	___fladd@aexp,w
  3811  03F4  00DC               	movwf	??___fladd
  3812  03F5  085C               	movf	??___fladd,w
  3813  03F6  00E6               	movwf	___fladd@bexp
  3814  03F7                     i1l1452:
  3815  03F7  0867               	movf	___fladd@grs,w
  3816  03F8  00DC               	movwf	??___fladd
  3817  03F9  085C               	movf	??___fladd,w
  3818  03FA  00E5               	movwf	___fladd@aexp
  3819  03FB                     i1l1454:
  3820  03FB  0854               	movf	___fladd@b,w
  3821  03FC  00DC               	movwf	??___fladd
  3822  03FD  085C               	movf	??___fladd,w
  3823  03FE  00E7               	movwf	___fladd@grs
  3824  03FF                     i1l1456:
  3825  03FF  0858               	movf	___fladd@a,w
  3826  0400  00DC               	movwf	??___fladd
  3827  0401  085C               	movf	??___fladd,w
  3828  0402  00D4               	movwf	___fladd@b
  3829  0403                     i1l1458:
  3830  0403  0867               	movf	___fladd@grs,w
  3831  0404  00DC               	movwf	??___fladd
  3832  0405  085C               	movf	??___fladd,w
  3833  0406  00D8               	movwf	___fladd@a
  3834  0407                     i1l1460:
  3835  0407  0855               	movf	___fladd@b+1,w
  3836  0408  00DC               	movwf	??___fladd
  3837  0409  085C               	movf	??___fladd,w
  3838  040A  00E7               	movwf	___fladd@grs
  3839  040B                     i1l1462:
  3840  040B  0859               	movf	___fladd@a+1,w
  3841  040C  00DC               	movwf	??___fladd
  3842  040D  085C               	movf	??___fladd,w
  3843  040E  00D5               	movwf	___fladd@b+1
  3844  040F                     i1l1464:
  3845  040F  0867               	movf	___fladd@grs,w
  3846  0410  00DC               	movwf	??___fladd
  3847  0411  085C               	movf	??___fladd,w
  3848  0412  00D9               	movwf	___fladd@a+1
  3849  0413                     i1l1466:
  3850  0413  0856               	movf	___fladd@b+2,w
  3851  0414  00DC               	movwf	??___fladd
  3852  0415  085C               	movf	??___fladd,w
  3853  0416  00E7               	movwf	___fladd@grs
  3854  0417                     i1l1468:
  3855  0417  085A               	movf	___fladd@a+2,w
  3856  0418  00DC               	movwf	??___fladd
  3857  0419  085C               	movf	??___fladd,w
  3858  041A  00D6               	movwf	___fladd@b+2
  3859  041B                     i1l1470:
  3860  041B  0867               	movf	___fladd@grs,w
  3861  041C  00DC               	movwf	??___fladd
  3862  041D  085C               	movf	??___fladd,w
  3863  041E  00DA               	movwf	___fladd@a+2
  3864  041F                     i1l1472:
  3865  041F  0857               	movf	___fladd@b+3,w
  3866  0420  00DC               	movwf	??___fladd
  3867  0421  085C               	movf	??___fladd,w
  3868  0422  00E7               	movwf	___fladd@grs
  3869  0423                     i1l1474:
  3870  0423  085B               	movf	___fladd@a+3,w
  3871  0424  00DC               	movwf	??___fladd
  3872  0425  085C               	movf	??___fladd,w
  3873  0426  00D7               	movwf	___fladd@b+3
  3874  0427                     i1l1476:
  3875  0427  0867               	movf	___fladd@grs,w
  3876  0428  00DC               	movwf	??___fladd
  3877  0429  085C               	movf	??___fladd,w
  3878  042A  00DB               	movwf	___fladd@a+3
  3879  042B                     i1l1478:
  3880  042B  01E7               	clrf	___fladd@grs
  3881  042C                     i1l1480:
  3882  042C  0865               	movf	___fladd@aexp,w
  3883  042D  00DC               	movwf	??___fladd
  3884  042E  01DD               	clrf	??___fladd+1
  3885  042F  085D               	movf	??___fladd+1,w
  3886  0430  00DF               	movwf	??___fladd+3
  3887  0431  0866               	movf	___fladd@bexp,w
  3888  0432  025C               	subwf	??___fladd,w
  3889  0433  00DE               	movwf	??___fladd+2
  3890  0434  1C03               	skipc
  3891  0435  03DF               	decf	??___fladd+3,f
  3892  0436  085F               	movf	??___fladd+3,w
  3893  0437  3A80               	xorlw	128
  3894  0438  00FF               	movwf	btemp+1
  3895  0439  3080               	movlw	128
  3896  043A  027F               	subwf	btemp+1,w
  3897  043B  1D03               	skipz
  3898  043C  2C3F               	goto	u169_25
  3899  043D  301A               	movlw	26
  3900  043E  025E               	subwf	??___fladd+2,w
  3901  043F                     u169_25:
  3902  043F  1C03               	skipc
  3903  0440  2C42               	goto	u169_21
  3904  0441  2C43               	goto	u169_20
  3905  0442                     u169_21:
  3906  0442  2C80               	goto	i1l1496
  3907  0443                     u169_20:
  3908  0443                     i1l1482:
  3909  0443  1283               	bcf	3,5	;RP0=0, select bank0
  3910  0444  1303               	bcf	3,6	;RP1=0, select bank0
  3911  0445  0857               	movf	___fladd@b+3,w
  3912  0446  0456               	iorwf	___fladd@b+2,w
  3913  0447  0455               	iorwf	___fladd@b+1,w
  3914  0448  0454               	iorwf	___fladd@b,w
  3915  0449  1D03               	skipz
  3916  044A  2C4C               	goto	u170_21
  3917  044B  2C4E               	goto	u170_20
  3918  044C                     u170_21:
  3919  044C  3001               	movlw	1
  3920  044D  2C4F               	goto	u171_20
  3921  044E                     u170_20:
  3922  044E  3000               	movlw	0
  3923  044F                     u171_20:
  3924  044F  00DC               	movwf	??___fladd
  3925  0450  085C               	movf	??___fladd,w
  3926  0451  00E7               	movwf	___fladd@grs
  3927  0452  3000               	movlw	0
  3928  0453  00D7               	movwf	___fladd@b+3
  3929  0454  3000               	movlw	0
  3930  0455  00D6               	movwf	___fladd@b+2
  3931  0456  3000               	movlw	0
  3932  0457  00D5               	movwf	___fladd@b+1
  3933  0458  3000               	movlw	0
  3934  0459  00D4               	movwf	___fladd@b
  3935  045A  0865               	movf	___fladd@aexp,w
  3936  045B  00DC               	movwf	??___fladd
  3937  045C  085C               	movf	??___fladd,w
  3938  045D  00E6               	movwf	___fladd@bexp
  3939  045E  2C88               	goto	i1l463
  3940  045F                     i1l465:
  3941  045F  1C67               	btfss	___fladd@grs,0
  3942  0460  2C62               	goto	u172_21
  3943  0461  2C63               	goto	u172_20
  3944  0462                     u172_21:
  3945  0462  2C6C               	goto	i1l1486
  3946  0463                     u172_20:
  3947  0463                     i1l1484:
  3948  0463  0867               	movf	___fladd@grs,w
  3949  0464  00DC               	movwf	??___fladd
  3950  0465  1003               	clrc
  3951  0466  0C5C               	rrf	??___fladd,w
  3952  0467  3801               	iorlw	1
  3953  0468  00DD               	movwf	??___fladd+1
  3954  0469  085D               	movf	??___fladd+1,w
  3955  046A  00E7               	movwf	___fladd@grs
  3956  046B  2C6E               	goto	i1l1488
  3957  046C                     i1l1486:
  3958  046C  1003               	clrc
  3959  046D  0CE7               	rrf	___fladd@grs,f
  3960  046E                     i1l1488:
  3961  046E  1C54               	btfss	___fladd@b,0
  3962  046F  2C71               	goto	u173_21
  3963  0470  2C72               	goto	u173_20
  3964  0471                     u173_21:
  3965  0471  2C73               	goto	i1l1492
  3966  0472                     u173_20:
  3967  0472                     i1l1490:
  3968  0472  17E7               	bsf	___fladd@grs,7
  3969  0473                     i1l1492:
  3970  0473  3001               	movlw	1
  3971  0474  00DC               	movwf	??___fladd
  3972  0475                     u174_25:
  3973  0475  0D57               	rlf	___fladd@b+3,w
  3974  0476  0CD7               	rrf	___fladd@b+3,f
  3975  0477  0CD6               	rrf	___fladd@b+2,f
  3976  0478  0CD5               	rrf	___fladd@b+1,f
  3977  0479  0CD4               	rrf	___fladd@b,f
  3978  047A  0BDC               	decfsz	??___fladd& (0+127),f
  3979  047B  2C75               	goto	u174_25
  3980  047C                     i1l1494:
  3981  047C  3001               	movlw	1
  3982  047D  00DC               	movwf	??___fladd
  3983  047E  085C               	movf	??___fladd,w
  3984  047F  07E6               	addwf	___fladd@bexp,f
  3985  0480                     i1l1496:
  3986  0480  1283               	bcf	3,5	;RP0=0, select bank0
  3987  0481  1303               	bcf	3,6	;RP1=0, select bank0
  3988  0482  0865               	movf	___fladd@aexp,w
  3989  0483  0266               	subwf	___fladd@bexp,w
  3990  0484  1C03               	skipc
  3991  0485  2C87               	goto	u175_21
  3992  0486  2C88               	goto	u175_20
  3993  0487                     u175_21:
  3994  0487  2C5F               	goto	i1l465
  3995  0488                     u175_20:
  3996  0488                     i1l463:
  3997  0488  1B64               	btfsc	___fladd@signs,6
  3998  0489  2C8B               	goto	u176_21
  3999  048A  2C8C               	goto	u176_20
  4000  048B                     u176_21:
  4001  048B  2CD7               	goto	i1l1522
  4002  048C                     u176_20:
  4003  048C                     i1l1498:
  4004  048C  0866               	movf	___fladd@bexp,w
  4005  048D  1D03               	btfss	3,2
  4006  048E  2C90               	goto	u177_21
  4007  048F  2C91               	goto	u177_20
  4008  0490                     u177_21:
  4009  0490  2C9A               	goto	i1l1504
  4010  0491                     u177_20:
  4011  0491                     i1l1500:
  4012  0491  3000               	movlw	0
  4013  0492  00D7               	movwf	?___fladd+3
  4014  0493  3000               	movlw	0
  4015  0494  00D6               	movwf	?___fladd+2
  4016  0495  3000               	movlw	0
  4017  0496  00D5               	movwf	?___fladd+1
  4018  0497  3000               	movlw	0
  4019  0498  00D4               	movwf	?___fladd
  4020  0499  2E05               	goto	i1l472
  4021  049A                     i1l1504:
  4022  049A  0858               	movf	___fladd@a,w
  4023  049B  07D4               	addwf	___fladd@b,f
  4024  049C  0859               	movf	___fladd@a+1,w
  4025  049D  1103               	clrz
  4026  049E  1803               	skipnc
  4027  049F  3E01               	addlw	1
  4028  04A0  1903               	skipnz
  4029  04A1  2CA3               	goto	u178_21
  4030  04A2  07D5               	addwf	___fladd@b+1,f
  4031  04A3                     u178_21:
  4032  04A3  085A               	movf	___fladd@a+2,w
  4033  04A4  1103               	clrz
  4034  04A5  1803               	skipnc
  4035  04A6  3E01               	addlw	1
  4036  04A7  1903               	skipnz
  4037  04A8  2CAA               	goto	u178_22
  4038  04A9  07D6               	addwf	___fladd@b+2,f
  4039  04AA                     u178_22:
  4040  04AA  085B               	movf	___fladd@a+3,w
  4041  04AB  1103               	clrz
  4042  04AC  1803               	skipnc
  4043  04AD  3E01               	addlw	1
  4044  04AE  1903               	skipnz
  4045  04AF  2CB1               	goto	u178_23
  4046  04B0  07D7               	addwf	___fladd@b+3,f
  4047  04B1                     u178_23:
  4048  04B1                     i1l1506:
  4049  04B1  1C57               	btfss	___fladd@b+3,0
  4050  04B2  2CB4               	goto	u179_21
  4051  04B3  2CB5               	goto	u179_20
  4052  04B4                     u179_21:
  4053  04B4  2D8B               	goto	i1l1556
  4054  04B5                     u179_20:
  4055  04B5                     i1l1508:
  4056  04B5  1C67               	btfss	___fladd@grs,0
  4057  04B6  2CB8               	goto	u180_21
  4058  04B7  2CB9               	goto	u180_20
  4059  04B8                     u180_21:
  4060  04B8  2CC2               	goto	i1l1512
  4061  04B9                     u180_20:
  4062  04B9                     i1l1510:
  4063  04B9  0867               	movf	___fladd@grs,w
  4064  04BA  00DC               	movwf	??___fladd
  4065  04BB  1003               	clrc
  4066  04BC  0C5C               	rrf	??___fladd,w
  4067  04BD  3801               	iorlw	1
  4068  04BE  00DD               	movwf	??___fladd+1
  4069  04BF  085D               	movf	??___fladd+1,w
  4070  04C0  00E7               	movwf	___fladd@grs
  4071  04C1  2CC4               	goto	i1l1514
  4072  04C2                     i1l1512:
  4073  04C2  1003               	clrc
  4074  04C3  0CE7               	rrf	___fladd@grs,f
  4075  04C4                     i1l1514:
  4076  04C4  1C54               	btfss	___fladd@b,0
  4077  04C5  2CC7               	goto	u181_21
  4078  04C6  2CC8               	goto	u181_20
  4079  04C7                     u181_21:
  4080  04C7  2CC9               	goto	i1l1518
  4081  04C8                     u181_20:
  4082  04C8                     i1l1516:
  4083  04C8  17E7               	bsf	___fladd@grs,7
  4084  04C9                     i1l1518:
  4085  04C9  3001               	movlw	1
  4086  04CA  00DC               	movwf	??___fladd
  4087  04CB                     u182_25:
  4088  04CB  0D57               	rlf	___fladd@b+3,w
  4089  04CC  0CD7               	rrf	___fladd@b+3,f
  4090  04CD  0CD6               	rrf	___fladd@b+2,f
  4091  04CE  0CD5               	rrf	___fladd@b+1,f
  4092  04CF  0CD4               	rrf	___fladd@b,f
  4093  04D0  0BDC               	decfsz	??___fladd& (0+127),f
  4094  04D1  2CCB               	goto	u182_25
  4095  04D2                     i1l1520:
  4096  04D2  3001               	movlw	1
  4097  04D3  00DC               	movwf	??___fladd
  4098  04D4  085C               	movf	??___fladd,w
  4099  04D5  07E6               	addwf	___fladd@bexp,f
  4100  04D6  2D8B               	goto	i1l1556
  4101  04D7                     i1l1522:
  4102  04D7  0857               	movf	___fladd@b+3,w
  4103  04D8  3A80               	xorlw	128
  4104  04D9  00FF               	movwf	btemp+1
  4105  04DA  085B               	movf	___fladd@a+3,w
  4106  04DB  3A80               	xorlw	128
  4107  04DC  027F               	subwf	btemp+1,w
  4108  04DD  1D03               	skipz
  4109  04DE  2CE9               	goto	u183_23
  4110  04DF  085A               	movf	___fladd@a+2,w
  4111  04E0  0256               	subwf	___fladd@b+2,w
  4112  04E1  1D03               	skipz
  4113  04E2  2CE9               	goto	u183_23
  4114  04E3  0859               	movf	___fladd@a+1,w
  4115  04E4  0255               	subwf	___fladd@b+1,w
  4116  04E5  1D03               	skipz
  4117  04E6  2CE9               	goto	u183_23
  4118  04E7  0858               	movf	___fladd@a,w
  4119  04E8  0254               	subwf	___fladd@b,w
  4120  04E9                     u183_23:
  4121  04E9  1803               	skipnc
  4122  04EA  2CEC               	goto	u183_21
  4123  04EB  2CED               	goto	u183_20
  4124  04EC                     u183_21:
  4125  04EC  2D45               	goto	i1l1532
  4126  04ED                     u183_20:
  4127  04ED                     i1l1524:
  4128  04ED  30FF               	movlw	255
  4129  04EE  00DC               	movwf	??___fladd
  4130  04EF  30FF               	movlw	255
  4131  04F0  00DD               	movwf	??___fladd+1
  4132  04F1  30FF               	movlw	255
  4133  04F2  00DE               	movwf	??___fladd+2
  4134  04F3  30FF               	movlw	255
  4135  04F4  00DF               	movwf	??___fladd+3
  4136  04F5  0858               	movf	___fladd@a,w
  4137  04F6  00E0               	movwf	??___fladd+4
  4138  04F7  0859               	movf	___fladd@a+1,w
  4139  04F8  00E1               	movwf	??___fladd+5
  4140  04F9  085A               	movf	___fladd@a+2,w
  4141  04FA  00E2               	movwf	??___fladd+6
  4142  04FB  085B               	movf	___fladd@a+3,w
  4143  04FC  00E3               	movwf	??___fladd+7
  4144  04FD  0854               	movf	___fladd@b,w
  4145  04FE  02E0               	subwf	??___fladd+4,f
  4146  04FF  0855               	movf	___fladd@b+1,w
  4147  0500  1C03               	skipc
  4148  0501  0F55               	incfsz	___fladd@b+1,w
  4149  0502  2D04               	goto	u184_21
  4150  0503  2D05               	goto	u184_22
  4151  0504                     u184_21:
  4152  0504  02E1               	subwf	??___fladd+5,f
  4153  0505                     u184_22:
  4154  0505  0856               	movf	___fladd@b+2,w
  4155  0506  1C03               	skipc
  4156  0507  0F56               	incfsz	___fladd@b+2,w
  4157  0508  2D0A               	goto	u184_23
  4158  0509  2D0B               	goto	u184_24
  4159  050A                     u184_23:
  4160  050A  02E2               	subwf	??___fladd+6,f
  4161  050B                     u184_24:
  4162  050B  0857               	movf	___fladd@b+3,w
  4163  050C  1C03               	skipc
  4164  050D  0F57               	incfsz	___fladd@b+3,w
  4165  050E  2D10               	goto	u184_25
  4166  050F  2D11               	goto	u184_26
  4167  0510                     u184_25:
  4168  0510  02E3               	subwf	??___fladd+7,f
  4169  0511                     u184_26:
  4170  0511  0860               	movf	??___fladd+4,w
  4171  0512  07DC               	addwf	??___fladd,f
  4172  0513  0861               	movf	??___fladd+5,w
  4173  0514  1803               	skipnc
  4174  0515  0F61               	incfsz	??___fladd+5,w
  4175  0516  2D18               	goto	u185_20
  4176  0517  2D19               	goto	u185_21
  4177  0518                     u185_20:
  4178  0518  07DD               	addwf	??___fladd+1,f
  4179  0519                     u185_21:
  4180  0519  0862               	movf	??___fladd+6,w
  4181  051A  1803               	skipnc
  4182  051B  0F62               	incfsz	??___fladd+6,w
  4183  051C  2D1E               	goto	u185_22
  4184  051D  2D1F               	goto	u185_23
  4185  051E                     u185_22:
  4186  051E  07DE               	addwf	??___fladd+2,f
  4187  051F                     u185_23:
  4188  051F  0863               	movf	??___fladd+7,w
  4189  0520  1803               	skipnc
  4190  0521  0A63               	incf	??___fladd+7,w
  4191  0522  07DF               	addwf	??___fladd+3,f
  4192  0523  085F               	movf	??___fladd+3,w
  4193  0524  00D7               	movwf	___fladd@b+3
  4194  0525  085E               	movf	??___fladd+2,w
  4195  0526  00D6               	movwf	___fladd@b+2
  4196  0527  085D               	movf	??___fladd+1,w
  4197  0528  00D5               	movwf	___fladd@b+1
  4198  0529  085C               	movf	??___fladd,w
  4199  052A  00D4               	movwf	___fladd@b
  4200  052B                     i1l1526:
  4201  052B  3080               	movlw	128
  4202  052C  00DC               	movwf	??___fladd
  4203  052D  085C               	movf	??___fladd,w
  4204  052E  06E4               	xorwf	___fladd@signs,f
  4205  052F  09E7               	comf	___fladd@grs,f
  4206  0530  0AE7               	incf	___fladd@grs,f
  4207  0531                     i1l1528:
  4208  0531  0867               	movf	___fladd@grs,w
  4209  0532  1D03               	btfss	3,2
  4210  0533  2D35               	goto	u186_21
  4211  0534  2D36               	goto	u186_20
  4212  0535                     u186_21:
  4213  0535  2D53               	goto	i1l480
  4214  0536                     u186_20:
  4215  0536                     i1l1530:
  4216  0536  3001               	movlw	1
  4217  0537  07D4               	addwf	___fladd@b,f
  4218  0538  3000               	movlw	0
  4219  0539  1803               	skipnc
  4220  053A  3001               	movlw	1
  4221  053B  07D5               	addwf	___fladd@b+1,f
  4222  053C  3000               	movlw	0
  4223  053D  1803               	skipnc
  4224  053E  3001               	movlw	1
  4225  053F  07D6               	addwf	___fladd@b+2,f
  4226  0540  3000               	movlw	0
  4227  0541  1803               	skipnc
  4228  0542  3001               	movlw	1
  4229  0543  07D7               	addwf	___fladd@b+3,f
  4230  0544  2D53               	goto	i1l480
  4231  0545                     i1l1532:
  4232  0545  0858               	movf	___fladd@a,w
  4233  0546  02D4               	subwf	___fladd@b,f
  4234  0547  0859               	movf	___fladd@a+1,w
  4235  0548  1C03               	skipc
  4236  0549  0F59               	incfsz	___fladd@a+1,w
  4237  054A  02D5               	subwf	___fladd@b+1,f
  4238  054B  085A               	movf	___fladd@a+2,w
  4239  054C  1C03               	skipc
  4240  054D  0F5A               	incfsz	___fladd@a+2,w
  4241  054E  02D6               	subwf	___fladd@b+2,f
  4242  054F  085B               	movf	___fladd@a+3,w
  4243  0550  1C03               	skipc
  4244  0551  0F5B               	incfsz	___fladd@a+3,w
  4245  0552  02D7               	subwf	___fladd@b+3,f
  4246  0553                     i1l480:
  4247  0553  0857               	movf	___fladd@b+3,w
  4248  0554  0456               	iorwf	___fladd@b+2,w
  4249  0555  0455               	iorwf	___fladd@b+1,w
  4250  0556  0454               	iorwf	___fladd@b,w
  4251  0557  1D03               	skipz
  4252  0558  2D5A               	goto	u187_21
  4253  0559  2D5B               	goto	u187_20
  4254  055A                     u187_21:
  4255  055A  2D87               	goto	i1l1554
  4256  055B                     u187_20:
  4257  055B                     i1l1534:
  4258  055B  0867               	movf	___fladd@grs,w
  4259  055C  1D03               	btfss	3,2
  4260  055D  2D5F               	goto	u188_21
  4261  055E  2D60               	goto	u188_20
  4262  055F                     u188_21:
  4263  055F  2D87               	goto	i1l1554
  4264  0560                     u188_20:
  4265  0560                     i1l1536:
  4266  0560  3000               	movlw	0
  4267  0561  00D7               	movwf	?___fladd+3
  4268  0562  3000               	movlw	0
  4269  0563  00D6               	movwf	?___fladd+2
  4270  0564  3000               	movlw	0
  4271  0565  00D5               	movwf	?___fladd+1
  4272  0566  3000               	movlw	0
  4273  0567  00D4               	movwf	?___fladd
  4274  0568  2E05               	goto	i1l472
  4275  0569                     i1l1540:
  4276  0569  3001               	movlw	1
  4277  056A  00DC               	movwf	??___fladd
  4278  056B                     u189_25:
  4279  056B  1003               	clrc
  4280  056C  0DD4               	rlf	___fladd@b,f
  4281  056D  0DD5               	rlf	___fladd@b+1,f
  4282  056E  0DD6               	rlf	___fladd@b+2,f
  4283  056F  0DD7               	rlf	___fladd@b+3,f
  4284  0570  0BDC               	decfsz	??___fladd,f
  4285  0571  2D6B               	goto	u189_25
  4286  0572                     i1l1542:
  4287  0572  1FE7               	btfss	___fladd@grs,7
  4288  0573  2D75               	goto	u190_21
  4289  0574  2D76               	goto	u190_20
  4290  0575                     u190_21:
  4291  0575  2D77               	goto	i1l484
  4292  0576                     u190_20:
  4293  0576                     i1l1544:
  4294  0576  1454               	bsf	___fladd@b,0
  4295  0577                     i1l484:
  4296  0577  1C67               	btfss	___fladd@grs,0
  4297  0578  2D7A               	goto	u191_21
  4298  0579  2D7B               	goto	u191_20
  4299  057A                     u191_21:
  4300  057A  2D7E               	goto	i1l1548
  4301  057B                     u191_20:
  4302  057B                     i1l1546:
  4303  057B  1403               	setc
  4304  057C  0DE7               	rlf	___fladd@grs,f
  4305  057D  2D80               	goto	i1l1550
  4306  057E                     i1l1548:
  4307  057E  1003               	clrc
  4308  057F  0DE7               	rlf	___fladd@grs,f
  4309  0580                     i1l1550:
  4310  0580  0866               	movf	___fladd@bexp,w
  4311  0581  1903               	btfsc	3,2
  4312  0582  2D84               	goto	u192_21
  4313  0583  2D85               	goto	u192_20
  4314  0584                     u192_21:
  4315  0584  2D87               	goto	i1l1554
  4316  0585                     u192_20:
  4317  0585                     i1l1552:
  4318  0585  3001               	movlw	1
  4319  0586  02E6               	subwf	___fladd@bexp,f
  4320  0587                     i1l1554:
  4321  0587  1FD6               	btfss	___fladd@b+2,7
  4322  0588  2D8A               	goto	u193_21
  4323  0589  2D8B               	goto	u193_20
  4324  058A                     u193_21:
  4325  058A  2D69               	goto	i1l1540
  4326  058B                     u193_20:
  4327  058B                     i1l1556:
  4328  058B  01E5               	clrf	___fladd@aexp
  4329  058C                     i1l1558:
  4330  058C  1FE7               	btfss	___fladd@grs,7
  4331  058D  2D8F               	goto	u194_21
  4332  058E  2D90               	goto	u194_20
  4333  058F                     u194_21:
  4334  058F  2D9E               	goto	i1l1566
  4335  0590                     u194_20:
  4336  0590                     i1l1560:
  4337  0590  0867               	movf	___fladd@grs,w
  4338  0591  397F               	andlw	127
  4339  0592  1903               	btfsc	3,2
  4340  0593  2D95               	goto	u195_21
  4341  0594  2D96               	goto	u195_20
  4342  0595                     u195_21:
  4343  0595  2D99               	goto	i1l490
  4344  0596                     u195_20:
  4345  0596                     i1l1562:
  4346  0596  01E5               	clrf	___fladd@aexp
  4347  0597  0AE5               	incf	___fladd@aexp,f
  4348  0598  2D9E               	goto	i1l1566
  4349  0599                     i1l490:
  4350  0599  1C54               	btfss	___fladd@b,0
  4351  059A  2D9C               	goto	u196_21
  4352  059B  2D9D               	goto	u196_20
  4353  059C                     u196_21:
  4354  059C  2D9E               	goto	i1l1566
  4355  059D                     u196_20:
  4356  059D  2D96               	goto	i1l1562
  4357  059E                     i1l1566:
  4358  059E  0865               	movf	___fladd@aexp,w
  4359  059F  1903               	btfsc	3,2
  4360  05A0  2DA2               	goto	u197_21
  4361  05A1  2DA3               	goto	u197_20
  4362  05A2                     u197_21:
  4363  05A2  2DD7               	goto	i1l493
  4364  05A3                     u197_20:
  4365  05A3                     i1l1568:
  4366  05A3  3001               	movlw	1
  4367  05A4  07D4               	addwf	___fladd@b,f
  4368  05A5  3000               	movlw	0
  4369  05A6  1803               	skipnc
  4370  05A7  3001               	movlw	1
  4371  05A8  07D5               	addwf	___fladd@b+1,f
  4372  05A9  3000               	movlw	0
  4373  05AA  1803               	skipnc
  4374  05AB  3001               	movlw	1
  4375  05AC  07D6               	addwf	___fladd@b+2,f
  4376  05AD  3000               	movlw	0
  4377  05AE  1803               	skipnc
  4378  05AF  3001               	movlw	1
  4379  05B0  07D7               	addwf	___fladd@b+3,f
  4380  05B1                     i1l1570:
  4381  05B1  1C57               	btfss	___fladd@b+3,0
  4382  05B2  2DB4               	goto	u198_21
  4383  05B3  2DB5               	goto	u198_20
  4384  05B4                     u198_21:
  4385  05B4  2DD7               	goto	i1l493
  4386  05B5                     u198_20:
  4387  05B5                     i1l1572:
  4388  05B5  0854               	movf	___fladd@b,w
  4389  05B6  00DC               	movwf	??___fladd
  4390  05B7  0855               	movf	___fladd@b+1,w
  4391  05B8  00DD               	movwf	??___fladd+1
  4392  05B9  0856               	movf	___fladd@b+2,w
  4393  05BA  00DE               	movwf	??___fladd+2
  4394  05BB  0857               	movf	___fladd@b+3,w
  4395  05BC  00DF               	movwf	??___fladd+3
  4396  05BD  3001               	movlw	1
  4397  05BE  00E0               	movwf	??___fladd+4
  4398  05BF                     u199_25:
  4399  05BF  0D5F               	rlf	??___fladd+3,w
  4400  05C0  0CDF               	rrf	??___fladd+3,f
  4401  05C1  0CDE               	rrf	??___fladd+2,f
  4402  05C2  0CDD               	rrf	??___fladd+1,f
  4403  05C3  0CDC               	rrf	??___fladd,f
  4404  05C4                     u199_20:
  4405  05C4  0BE0               	decfsz	??___fladd+4,f
  4406  05C5  2DBF               	goto	u199_25
  4407  05C6  085F               	movf	??___fladd+3,w
  4408  05C7  00D7               	movwf	___fladd@b+3
  4409  05C8  085E               	movf	??___fladd+2,w
  4410  05C9  00D6               	movwf	___fladd@b+2
  4411  05CA  085D               	movf	??___fladd+1,w
  4412  05CB  00D5               	movwf	___fladd@b+1
  4413  05CC  085C               	movf	??___fladd,w
  4414  05CD  00D4               	movwf	___fladd@b
  4415  05CE  0A66               	incf	___fladd@bexp,w
  4416  05CF  1903               	btfsc	3,2
  4417  05D0  2DD2               	goto	u200_21
  4418  05D1  2DD3               	goto	u200_20
  4419  05D2                     u200_21:
  4420  05D2  2DD7               	goto	i1l493
  4421  05D3                     u200_20:
  4422  05D3                     i1l1574:
  4423  05D3  3001               	movlw	1
  4424  05D4  00DC               	movwf	??___fladd
  4425  05D5  085C               	movf	??___fladd,w
  4426  05D6  07E6               	addwf	___fladd@bexp,f
  4427  05D7                     i1l493:
  4428  05D7  0A66               	incf	___fladd@bexp,w
  4429  05D8  1903               	btfsc	3,2
  4430  05D9  2DDB               	goto	u201_21
  4431  05DA  2DDC               	goto	u201_20
  4432  05DB                     u201_21:
  4433  05DB  2DE1               	goto	i1l1578
  4434  05DC                     u201_20:
  4435  05DC                     i1l1576:
  4436  05DC  0866               	movf	___fladd@bexp,w
  4437  05DD  1D03               	btfss	3,2
  4438  05DE  2DE0               	goto	u202_21
  4439  05DF  2DE1               	goto	u202_20
  4440  05E0                     u202_21:
  4441  05E0  2DEF               	goto	i1l1584
  4442  05E1                     u202_20:
  4443  05E1                     i1l1578:
  4444  05E1  3000               	movlw	0
  4445  05E2  00D7               	movwf	___fladd@b+3
  4446  05E3  3000               	movlw	0
  4447  05E4  00D6               	movwf	___fladd@b+2
  4448  05E5  3000               	movlw	0
  4449  05E6  00D5               	movwf	___fladd@b+1
  4450  05E7  3000               	movlw	0
  4451  05E8  00D4               	movwf	___fladd@b
  4452  05E9                     i1l1580:
  4453  05E9  0866               	movf	___fladd@bexp,w
  4454  05EA  1D03               	btfss	3,2
  4455  05EB  2DED               	goto	u203_21
  4456  05EC  2DEE               	goto	u203_20
  4457  05ED                     u203_21:
  4458  05ED  2DEF               	goto	i1l1584
  4459  05EE                     u203_20:
  4460  05EE                     i1l1582:
  4461  05EE  01E4               	clrf	___fladd@signs
  4462  05EF                     i1l1584:
  4463  05EF  1C66               	btfss	___fladd@bexp,0
  4464  05F0  2DF2               	goto	u204_21
  4465  05F1  2DF3               	goto	u204_20
  4466  05F2                     u204_21:
  4467  05F2  2DF5               	goto	i1l1588
  4468  05F3                     u204_20:
  4469  05F3                     i1l1586:
  4470  05F3  17D6               	bsf	___fladd@b+2,7
  4471  05F4  2DF9               	goto	i1l501
  4472  05F5                     i1l1588:
  4473  05F5  307F               	movlw	127
  4474  05F6  00DC               	movwf	??___fladd
  4475  05F7  085C               	movf	??___fladd,w
  4476  05F8  05D6               	andwf	___fladd@b+2,f
  4477  05F9                     i1l501:
  4478  05F9  0866               	movf	___fladd@bexp,w
  4479  05FA  00DC               	movwf	??___fladd
  4480  05FB  1003               	clrc
  4481  05FC  0C5C               	rrf	??___fladd,w
  4482  05FD  00DD               	movwf	??___fladd+1
  4483  05FE  085D               	movf	??___fladd+1,w
  4484  05FF  00D7               	movwf	___fladd@b+3
  4485  0600                     i1l1590:
  4486  0600  1FE4               	btfss	___fladd@signs,7
  4487  0601  2E03               	goto	u205_21
  4488  0602  2E04               	goto	u205_20
  4489  0603                     u205_21:
  4490  0603  2E05               	goto	i1l502
  4491  0604                     u205_20:
  4492  0604                     i1l1592:
  4493  0604  17D7               	bsf	___fladd@b+3,7
  4494  0605                     i1l502:
  4495  0605                     i1l472:
  4496  0605  0008               	return
  4497  0606                     __end_of___fladd:
  4498  007E                     btemp	set	126	;btemp
  4499  007E                     wtemp0	set	126
  4500                           
  4501                           	psect	idloc
  4502                           
  4503                           ;Config register IDLOC0 @ 0x2000
  4504                           ;	unspecified, using default values
  4505  2000                     	org	8192
  4506  2000  3FFF               	dw	16383
  4507                           
  4508                           ;Config register IDLOC1 @ 0x2001
  4509                           ;	unspecified, using default values
  4510  2001                     	org	8193
  4511  2001  3FFF               	dw	16383
  4512                           
  4513                           ;Config register IDLOC2 @ 0x2002
  4514                           ;	unspecified, using default values
  4515  2002                     	org	8194
  4516  2002  3FFF               	dw	16383
  4517                           
  4518                           ;Config register IDLOC3 @ 0x2003
  4519                           ;	unspecified, using default values
  4520  2003                     	org	8195
  4521  2003  3FFF               	dw	16383
  4522                           
  4523                           	psect	config
  4524                           
  4525                           ;Config register CONFIG1 @ 0x2007
  4526                           ;	Oscillator Selection bits
  4527                           ;	FOSC = INTRC_NOCLKOUT, INTOSCIO oscillator: I/O function on RA6/OSC2/CLKOUT pin, I/O f
      +                          unction on RA7/OSC1/CLKIN
  4528                           ;	Watchdog Timer Enable bit
  4529                           ;	WDTE = OFF, WDT disabled and can be enabled by SWDTEN bit of the WDTCON register
  4530                           ;	Power-up Timer Enable bit
  4531                           ;	PWRTE = OFF, PWRT disabled
  4532                           ;	RE3/MCLR pin function select bit
  4533                           ;	MCLRE = OFF, RE3/MCLR pin function is digital input, MCLR internally tied to VDD
  4534                           ;	Code Protection bit
  4535                           ;	CP = OFF, Program memory code protection is disabled
  4536                           ;	Data Code Protection bit
  4537                           ;	CPD = OFF, Data memory code protection is disabled
  4538                           ;	Brown Out Reset Selection bits
  4539                           ;	BOREN = OFF, BOR disabled
  4540                           ;	Internal External Switchover bit
  4541                           ;	IESO = OFF, Internal/External Switchover mode is disabled
  4542                           ;	Fail-Safe Clock Monitor Enabled bit
  4543                           ;	FCMEN = OFF, Fail-Safe Clock Monitor is disabled
  4544                           ;	Low Voltage Programming Enable bit
  4545                           ;	LVP = OFF, RB3 pin has digital I/O, HV on MCLR must be used for programming
  4546                           ;	In-Circuit Debugger Mode bit
  4547                           ;	DEBUG = 0x1, unprogrammed default
  4548  2007                     	org	8199
  4549  2007  20D4               	dw	8404
  4550                           
  4551                           ;Config register CONFIG2 @ 0x2008
  4552                           ;	Brown-out Reset Selection bit
  4553                           ;	BOR4V = BOR40V, Brown-out Reset set to 4.0V
  4554                           ;	Flash Program Memory Self Write Enable bits
  4555                           ;	WRT = OFF, Write protection off
  4556  2008                     	org	8200
  4557  2008  3FFF               	dw	16383

Data Sizes:
    Strings     0
    Constant    0
    Data        0
    BSS         4
    Persistent  0
    Stack       0

Auto Spaces:
    Space          Size  Autos    Used
    COMMON           14     14      14
    BANK0            80     79      79
    BANK1            80     18      22
    BANK3            96      0       0
    BANK2            96      0       0

Pointer List with Targets:

    None.

Critical Paths under _main in COMMON

    None.

Critical Paths under _isr in COMMON

    _map->___xxtofl
    ___fltol->___xxtofl
    ___flmul->___xxtofl
    ___fldiv->___xxtofl
    ___fladd->___xxtofl

Critical Paths under _main in BANK0

    None.

Critical Paths under _isr in BANK0

    _isr->_map
    _map->___fltol
    ___fltol->___fladd
    ___flmul->___fldiv
    ___fladd->___flmul

Critical Paths under _main in BANK1

    _main->_setup

Critical Paths under _isr in BANK1

    _isr->_map
    _map->___fltol

Critical Paths under _main in BANK3

    None.

Critical Paths under _isr in BANK3

    None.

Critical Paths under _main in BANK2

    None.

Critical Paths under _isr in BANK2

    None.

Call Graph Tables:

 ---------------------------------------------------------------------------------
 (Depth) Function   	        Calls       Base Space   Used Autos Params    Refs
 ---------------------------------------------------------------------------------
 (0) _main                                                 1     1      0       0
                                             17 BANK1      1     1      0
                              _setup
 ---------------------------------------------------------------------------------
 (1) _setup                                                1     1      0       0
                                             16 BANK1      1     1      0
 ---------------------------------------------------------------------------------
 Estimated maximum stack depth 1
 ---------------------------------------------------------------------------------
 (Depth) Function   	        Calls       Base Space   Used Autos Params    Refs
 ---------------------------------------------------------------------------------
 (2) _isr                                                  5     5      0    7645
                                             11 BANK1      5     5      0
                                _map
 ---------------------------------------------------------------------------------
 (3) _map                                                  7     1      6    7645
                                             78 BANK0      1     1      0
                                              5 BANK1      6     0      6
                            ___fladd
                            ___fldiv
                            ___flmul
                            ___fltol
                           ___xxtofl
 ---------------------------------------------------------------------------------
 (4) ___xxtofl                                            14    10      4     626
                                              0 COMMON    14    10      4
 ---------------------------------------------------------------------------------
 (4) ___fltol                                             11     7      4     305
                                             72 BANK0      6     2      4
                                              0 BANK1      5     5      0
                            ___fladd (ARG)
                            ___fldiv (ARG)
                            ___flmul (ARG)
                           ___xxtofl (ARG)
 ---------------------------------------------------------------------------------
 (4) ___flmul                                             26    18      8    2417
                                             26 BANK0     26    18      8
                          __Umul8_16
                            ___fldiv (ARG)
                           ___xxtofl (ARG)
 ---------------------------------------------------------------------------------
 (5) __Umul8_16                                            9     7      2     799
                                              0 COMMON     9     7      2
 ---------------------------------------------------------------------------------
 (4) ___fldiv                                             26    18      8    1273
                                              0 BANK0     26    18      8
                           ___xxtofl (ARG)
 ---------------------------------------------------------------------------------
 (4) ___fladd                                             20    12      8    2262
                                             52 BANK0     20    12      8
                            ___fldiv (ARG)
                            ___flmul (ARG)
                           ___xxtofl (ARG)
 ---------------------------------------------------------------------------------
 Estimated maximum stack depth 5
 ---------------------------------------------------------------------------------

 Call Graph Graphs:

 _main (ROOT)
   _setup

 _isr (ROOT)
   _map
     ___fladd
       ___fldiv (ARG)
         ___xxtofl (ARG)
       ___flmul (ARG)
         __Umul8_16
         ___fldiv (ARG)
         ___xxtofl (ARG)
       ___xxtofl (ARG)
     ___fldiv
     ___flmul
     ___fltol
       ___fladd (ARG)
       ___fldiv (ARG)
       ___flmul (ARG)
       ___xxtofl (ARG)
     ___xxtofl

 Address spaces:
Name               Size   Autos  Total    Cost      Usage
BITCOMMON            E      0       0       0        0.0%
EEDATA             100      0       0       0        0.0%
NULL                 0      0       0       0        0.0%
CODE                 0      0       0       0        0.0%
COMMON               E      E       E       1      100.0%
BITSFR0              0      0       0       1        0.0%
SFR0                 0      0       0       1        0.0%
BITSFR1              0      0       0       2        0.0%
SFR1                 0      0       0       2        0.0%
STACK                0      0       0       2        0.0%
ABS                  0      0      73       3        0.0%
BITBANK0            50      0       0       4        0.0%
BITSFR3              0      0       0       4        0.0%
SFR3                 0      0       0       4        0.0%
BANK0               50     4F      4F       5       98.8%
BITSFR2              0      0       0       5        0.0%
SFR2                 0      0       0       5        0.0%
BITBANK1            50      0       0       6        0.0%
BANK1               50     12      16       7       27.5%
BITBANK3            60      0       0       8        0.0%
BANK3               60      0       0       9        0.0%
BITBANK2            60      0       0      10        0.0%
BANK2               60      0       0      11        0.0%
DATA                 0      0      73      12        0.0%


Microchip Technology PIC Macro Assembler V2.35 build 20211206165544 
Symbol Table                                                                                   Fri Apr 29 14:49:24 2022

           ___fldiv@aexp 0039             ___fldiv@bexp 0038             ___fldiv@sign 0031  
                     l74 0D3C                       l76 0D40                       l77 0D45  
    __Umul8_16@word_mpld 0076                      _PR2 0092                      _map 0DE2  
                    _isr 0E94             ___flmul@aexp 004C             ___flmul@bexp 004D  
           ___flmul@sign 0047             ___flmul@temp 0052             ___flmul@prod 004E  
           ___fltol@exp1 006D                     l2020 0CCB                     l2012 0CAE  
                   l2022 0CD8                     l2014 0CB3                     l2024 0CDC  
                   l2016 0CB9                     l2026 0CE3                     l2018 0CC4  
                   l1930 0CF6                     l1940 0D00                     l1932 0CF7  
                   l1924 0CEA                     l1950 0D0F                     l1942 0D01  
                   l1934 0CFA                     l1926 0CEE                     l1960 0D20  
                   l1952 0D12                     l1944 0D07                     l1936 0CFB  
                   l1928 0CEF                     l1970 0D2C                     l1962 0D22  
                   l1954 0D15                     l1946 0D0A                     l1938 0CFC  
                   l1980 0D37                     l1972 0D30                     l1964 0D25  
                   l1956 0D1C                     l1948 0D0B                     l1982 0D38  
                   l1974 0D32                     l1966 0D26                     l1958 0D1F  
                   ?_map 00A5                     l1984 0D39                     l1976 0D34  
                   l1968 0D28                     l1986 0D3B                     l1978 0D36  
                   ?_isr 0070                     _CCPR 00B4                     u2900 0CB9  
                   u2901 0CB8                     u2910 0CC4                     u2911 0CC3  
                   u2920 0CD8                     u2921 0CD7                     u2860 0D40  
                   u2861 0D3F                     u2937 0CE0                     u2947 0D19  
                   i1l80 0E93                     i1l59 0F3B                     _main 0CAE  
                   map@x 006E                     btemp 007E                     start 0010  
        ___fldiv@new_exp 0032                    ??_map 007E                    ??_isr 00AB  
          ___fltol@sign1 006C          __end_of___fladd 0606                    ?_main 0070  
        __end_of___fldiv 07E3          __end_of___flmul 037E          __end_of___fltol 0DE2  
                  _ANSEL 0188                    i1l501 05F9                    i1l502 0605  
                  i1l352 0DE1                    i1l601 0FFF                    i1l362 0DE1  
                  i1l531 0754                    i1l515 0662                    i1l612 0FC9  
                  i1l517 07E2                    i1l613 0FD5                    i1l605 0FAD  
                  i1l463 0488                    i1l359 0DCC                    i1l480 0553  
                  i1l472 0605                    i1l465 045F                    i1l537 07C6  
                  i1l561 02E9                    i1l490 0599                    i1l459 03E1  
                  i1l539 07D6                    i1l555 037D                    i1l484 0577  
                  i1l493 05D7                    i1l574 0C9B                    i1l567 0371  
                  i1l576 0CAD                    i1l599 0F68                    _PORTA 0005  
                  _TRISA 0085                    map@x0 00A5                    map@x1 00A6  
                  map@y0 00A7                    map@y1 00A9                    _setup 0CEA  
                  pclath 000A                    status 0003                    wtemp0 007E  
        __initialization 0013             __end_of_main 0CEA                   ??_main 00B1  
                 _ADRESH 001E                   _CCPR1L 0015                   _CCPR2L 001B  
                 _CCPR_2 00B2                   ?_setup 0070                   _ANSELH 0189  
                 i1l2000 0EED                   i1l2002 0F08                   i1l2004 0F16  
                 i1l2006 0F27                   i1l1400 037E                   i1l2008 0F39  
                 i1l1410 0395                   i1l1402 0385                   i1l1500 0491  
                 i1l1420 03AD                   i1l1412 039A                   i1l1404 038B  
                 i1l1510 04B9                   i1l1430 03C3                   i1l1422 03B2  
                 i1l1414 03A2                   i1l1406 038F                   i1l1350 0C88  
                 u200_20 05D3                   i1l1520 04D2                   i1l1512 04C2  
                 i1l1504 049A                   i1l1440 03D7                   i1l1432 03C4  
                 i1l1424 03B8                   i1l1416 03A3                   i1l1408 0390  
                 i1l1600 0617                   i1l1360 0CA9                   i1l1352 0C8A  
                 u200_21 05D2                   i1l1530 0536                   i1l1514 04C4  
                 i1l1506 04B1                   i1l1522 04D7                   i1l1450 03F3  
                 i1l1434 03C9                   i1l1442 03D9                   i1l1426 03B9  
                 i1l1418 03A5                   i1l1610 062B                   i1l1602 0618  
                 i1l1354 0C91                   i1l1370 0D60                   i1l1540 0569  
                 i1l1524 04ED                   i1l1532 0545                   i1l1516 04C8  
                 i1l1508 04B5                   i1l1460 0407                   i1l1452 03F7  
                 i1l1444 03E7                   i1l1436 03CE                   i1l1428 03BF  
                 i1l1700 0751                   i1l1620 0644                   i1l1604 061D  
                 i1l1612 062D                   i1l1356 0C95                   i1l1380 0D94  
                 i1l1372 0D85                   i1l1364 0D46                   i1l1550 0580  
                 i1l1542 0572                   i1l1534 055B                   i1l1526 052B  
                 i1l1518 04C9                   i1l1470 041B                   i1l1462 040B  
                 i1l1454 03FB                   i1l1446 03EB                   i1l1438 03D6  
                 i1l1710 0770                   i1l1630 0658                   i1l1622 0645  
                 i1l1614 0635                   i1l1606 0622                   i1l1358 0CA4  
                 i1l1374 0D86                   i1l1366 0D57                   u201_20 05DC  
                 i1l1560 0590                   i1l1552 0585                   i1l1544 0576  
                 i1l1536 0560                   i1l1528 0531                   i1l1480 042C  
                 i1l1472 041F                   i1l1464 040F                   i1l1456 03FF  
                 i1l1448 03EF                   i1l1720 07B9                   i1l1712 0789  
                 i1l1704 0759                   i1l1624 064A                   i1l1632 065A  
                 i1l1616 063A                   i1l1608 062A                   i1l1800 017A  
                 i1l1376 0D8E                   u201_21 05DB                   i1l1570 05B1  
                 i1l1562 0596                   i1l1546 057B                   i1l1554 0587  
                 i1l1490 0472                   i1l1482 0443                   i1l1474 0423  
                 i1l1466 0413                   i1l1458 0403                   i1l1730 07D2  
                 i1l1722 07BD                   i1l1706 075E                   i1l1714 078F  
                 i1l1650 06A3                   i1l1634 066A                   i1l1642 0683  
                 i1l1626 064F                   i1l1618 0640                   i1l1810 020A  
                 i1l1802 018A                   i1l1394 0DB9                   i1l1386 0D9C  
                 i1l1378 0D90                   i1l1580 05E9                   i1l1572 05B5  
                 i1l1548 057E                   i1l1556 058B                   i1l1492 0473  
                 i1l1484 0463                   i1l1476 0427                   i1l1468 0417  
                 i1l1724 07C5                   i1l1716 079C                   i1l1708 076C  
                 i1l1660 06C2                   i1l1652 06AB                   i1l1644 0688  
                 i1l1636 0676                   i1l1628 0657                   i1l1820 029E  
                 i1l1812 021A                   i1l1804 01A7                   i1l1740 002A  
                 i1l1396 0DD1                   i1l1388 0DB2                   i1l1900 0FB4  
                 i1l1590 0600                   i1l1582 05EE                   i1l1574 05D3  
                 i1l1566 059E                   i1l1558 058C                   i1l1494 047C  
                 i1l1486 046C                   i1l1478 042B                   i1l1726 07CC  
                 i1l1718 07AA                   i1l1670 06F4                   i1l1662 06D4  
                 i1l1654 06B3                   i1l1638 067A                   i1l1830 02C3  
                 i1l1822 02AC                   i1l1814 0247                   i1l1806 01C0  
                 i1l1750 0041                   i1l1742 002E                   i1l1398 0DD6  
                 i1l1910 0FED                   i1l1902 0FBF                   i1l1592 0604  
                 i1l1584 05EF                   u202_20 05E1                   i1l1576 05DC  
                 i1l1568 05A3                   i1l1488 046E                   i1l1496 0480  
                 i1l1728 07D0                   i1l1680 0715                   i1l1672 06F5  
                 i1l1664 06D8                   i1l1656 06BB                   i1l1648 0691  
                 u210_20 064A                   i1l1840 02E6                   i1l1824 02B5  
                 i1l1832 02C9                   i1l1816 026D                   i1l1808 01DD  
                 i1l1760 005A                   i1l1752 0043                   i1l1744 002F  
                 i1l1736 001D                   i1l1912 0FF2                   i1l1904 0FC3  
                 i1l1920 0DE5                   u202_21 05E0                   u210_21 0649  
                 i1l1586 05F3                   i1l1578 05E1                   i1l1498 048C  
                 i1l1690 072E                   i1l1682 0717                   i1l1674 0703  
                 i1l1666 06D9                   i1l1658 06BD                   i1l1594 0606  
                 i1l1850 0305                   i1l1834 02CD                   i1l1826 02B9  
                 i1l1818 0295                   i1l1770 006F                   i1l1762 005B  
                 i1l1754 004B                   i1l1746 0034                   i1l1738 0024  
                 i1l1914 0FF6                   i1l1906 0FCD                   i1l1588 05F5  
                 i1l1684 0720                   i1l1692 0734                   i1l1668 06E2  
                 i1l1676 0707                   i1l1596 060D                   i1l1860 034B  
                 i1l1852 031E                   i1l1844 02EE                   i1l1836 02CE  
                 i1l1828 02BA                   i1l1780 008A                   i1l1772 0077  
                 i1l1764 0060                   i1l1756 0050                   i1l1748 0039  
                 i1l1916 0FF7                   i1l1908 0FD7                   i1l1694 0738  
                 i1l1686 0724                   i1l1678 070D                   i1l1598 0613  
                 i1l1870 036A                   i1l1862 0355                   i1l1846 02F3  
                 i1l1854 0324                   i1l1838 02D2                   i1l1790 010C  
                 i1l1782 009A                   i1l1774 007C                   i1l1766 0065  
                 i1l1758 0056                   u203_20 05EE                   i1l1696 0739  
                 i1l1688 0725                   u211_20 064F                   i1l1872 0375  
                 i1l1864 0357                   i1l1856 0331                   i1l1848 0301  
                 i1l1792 0128                   i1l1784 00A7                   i1l1776 0081  
                 i1l1768 006D                   i1l1880 0F50                   u203_21 05ED  
                 u211_21 064E                   i1l1698 073D                   i1l1866 0365  
                 i1l1858 033C                   i1l1794 0144                   i1l1786 00C4  
                 i1l1890 0F7E                   i1l1882 0F60                   i1l1868 0369  
                 i1l1796 014D                   i1l1788 00E0                   i1l1892 0F8B  
                 i1l1884 0F70                   i1l1876 0F47                   i1l1798 015D  
                 i1l1894 0F92                   i1l1878 0F4C                   i1l1990 0E9A  
                 u204_20 05F3                   u220_20 070D                   u212_20 066A  
                 i1l1896 0F96                   i1l1888 0F79                   i1l1992 0EA5  
                 u204_21 05F2                   u220_21 070C                   u212_21 0669  
                 i1l1898 0FA4                   i1l1994 0EC0                   i1l1996 0ECE  
                 i1l1988 0E94                   i1l1998 0EE0                   u205_20 0604  
                 u221_20 0715                   u213_20 0688                   u205_21 0603  
                 u221_21 0714                   u213_21 0687                   u230_20 0770  
                 u214_20 06C2                   u206_20 0617                   u150_20 0D57  
                 u230_21 076F                   u214_21 06C1                   u206_21 0616  
                 u150_21 0D56                   u222_25 0719                   u231_20 077F  
                 u223_20 0724                   u207_20 061D                   u151_20 0D7C  
                 u223_21 0723                   u207_21 061C                   u231_25 077A  
                 u215_25 06C4                   u151_25 0D77                   u160_20 038F  
                 u232_20 079C                   u208_20 0622                   u240_20 0065  
                 u152_20 0D94                   u160_21 038E                   u232_21 079B  
                 u208_21 0621                   u240_21 0064                   u152_21 0D93  
                 u232_25 0798                   u224_25 0727                   u216_25 06CD  
                 u161_20 0395                   u233_20 07B9                   u225_20 0738  
                 u217_20 06D8                   u209_20 0644                   u241_20 007C  
                 u153_20 0D9B                   u161_21 0394                   u233_21 07B8  
                 u225_21 0737                   u217_21 06D7                   u209_21 0643  
                 u241_21 007B                   u153_21 0D9A                   u233_25 07B5  
                 u170_20 044E                   u162_20 039A                   u234_20 07D0  
                 u226_20 073D                   u242_20 0081                   u170_21 044C  
                 u162_21 0399                   u234_21 07CF                   u226_21 073C  
                 u242_21 0080                   u218_25 06DB                   u250_25 01A9  
                 u154_25 0D9D                   u171_20 044F                   u163_20 03B8  
                 u227_20 0751                   u219_20 06F4                   u147_20 0C95  
                 u235_20 002E                   u155_20 0DB1                   u163_21 03B7  
                 u227_21 0750                   u219_21 06F3                   u147_21 0C94  
                 u251_21 01CF                   u243_21 00D2                   u235_21 002D  
                 u155_21 0DB0                   u251_22 01D6                   u243_22 00D9  
                 u251_23 01DD                   u243_23 00E0                   u219_25 06F0  
                 u180_20 04B9                   u172_20 0463                   u164_20 03C3  
                 u228_20 0758                   u260_20 02B9                   u236_20 0034  
                 u156_20 0DB8                   u180_21 04B8                   u172_21 0462  
                 u164_21 03C2                   u228_21 0757                   u260_21 02B8  
                 u252_21 01FC                   u244_21 00EE                   u236_21 0033  
                 u156_21 0DB7                   u252_22 0203                   u244_22 00F5  
                 u252_23 020A                   u244_23 00FC                   u148_25 0C9C  
                 u181_20 04C8                   u173_20 0472                   u165_20 03C9  
                 u229_20 075E                   u149_20 0CA9                   u237_20 0039  
                 u181_21 04C7                   u173_21 0471                   u165_21 03C8  
                 u229_21 075D                   u149_21 0CA8                   u253_21 0229  
                 u245_21 011A                   u237_21 0038                   u253_22 0230  
                 u245_22 0121                   u253_23 0237                   u245_23 0128  
                 u261_25 02BC                   u157_25 0DBD                   u190_20 0576  
                 u166_20 03CE                   u270_20 034B                   u262_20 02CD  
                 u254_20 0253                   u238_20 005A                   u158_20 0DD1  
                 u190_21 0575                   u166_21 03CD                   u270_21 034A  
                 u262_21 02CC                   u246_21 0136                   u238_21 0059  
                 u158_21 0DD0                   u246_22 013D                   u246_23 0144  
                 u182_25 04CB                   u174_25 0475                   u270_25 0347  
                 u254_25 024E                   u191_20 057B                   u183_20 04ED  
                 u175_20 0488                   u167_20 03E7                   u271_20 0369  
                 u263_20 02D2                   u239_20 0060                   u159_20 0DD6  
                 u191_21 057A                   u183_21 04EC                   u175_21 0487  
                 u167_21 03E6                   u271_21 0368                   u263_21 02D1  
                 u255_21 025F                   u239_21 005F                   u159_21 0DD5  
                 u255_22 0266                   u183_23 04E9                   u255_23 026D  
                 u247_25 0146                   u192_20 0585                   u176_20 048C  
                 u168_20 03EB                   u264_20 02E6                   u256_20 027B  
                 u280_20 0FC3                   u272_20 0F4C                   u192_21 0584  
                 u184_21 0504                   u176_21 048B                   u168_21 03EA  
                 u264_21 02E5                   u248_21 016C                   u280_21 0FC2  
                 u272_21 0F4B                   u184_22 0505                   u248_22 0173  
                 u184_23 050A                   u248_23 017A                   u184_24 050B  
                 u184_25 0510                   u256_25 0276                   u184_26 0511  
                 u193_20 058B                   u185_20 0518                   u177_20 0491  
                 u169_20 0443                   u265_20 02ED                   u281_20 0FC9  
                 u273_20 0F50                   u193_21 058A                   u185_21 0519  
                 u177_21 0490                   u169_21 0442                   u265_21 02EC  
                 u257_21 0287                   u249_21 0199                   u281_21 0FC8  
                 u273_21 0F4F                   u185_22 051E                   u257_22 028E  
                 u249_22 01A0                   u185_23 051F                   u257_23 0295  
                 u249_23 01A7                   u169_25 043F                   u194_20 0590  
                 u186_20 0536                   u266_20 02F3                   u282_20 0FCD  
                 u274_20 0F70                   u194_21 058F                   u186_21 0535  
                 u178_21 04A3                   u266_21 02F2                   u282_21 0FCC  
                 u274_21 0F6F                   u178_22 04AA                   u178_23 04B1  
                 u258_25 0297                   u195_20 0596                   u187_20 055B  
                 u179_20 04B5                   u267_20 0305                   u283_20 0FE2  
                 u195_21 0595                   u187_21 055A                   u179_21 04B4  
                 u267_21 0304                   u259_25 02AE                   u283_25 0FDD  
                 u275_25 0F83                   u196_20 059D                   u188_20 0560  
                 u268_20 0314                   u284_20 0FF2                   u276_20 0F91  
                 u196_21 059C                   u188_21 055F                   u284_21 0FF1  
                 u276_21 0F90                   u268_25 030F                   u197_20 05A3  
                 u269_20 0331                   u285_20 0FF6                   u197_21 05A2  
                 u269_21 0330                   u285_21 0FF5                   u189_25 056B  
                 u269_25 032D                   u277_25 0FA5                   u198_20 05B5  
                 u278_20 0FB3                   u198_21 05B4                   u278_21 0FB2  
                 u199_20 05C4                   u287_20 0E9A                   u287_21 0E99  
                 u199_25 05BF                   u279_25 0FB8                   u288_20 0EA5  
                 u288_21 0EA4                   u289_20 0EED                   u289_21 0EEC  
       __end_of___xxtofl 1000                ??___fladd 005C                ??___fldiv 0028  
              ??___flmul 0042                ??___fltol 00A0                   saved_w 007E  
           ___xxtofl@arg 007A             ___xxtofl@exp 0079             ___xxtofl@val 0070  
__end_of__initialization 0019               ___fltol@f1 0068           __pcstackCOMMON 0070  
          __end_of_setup 0D46                  ??_setup 00B0               __pbssBANK1 00B2  
      __end_of__Umul8_16 0CAE               __pmaintext 0CAE               __pintentry 0004  
                _CCP1CON 0017                  _CCP2CON 001D                ?___xxtofl 0070  
                ___fladd 037E                  ___fldiv 0606                  ___flmul 001D  
                ___fltol 0D46                  __ptext1 0CEA                  __ptext2 0E94  
                __ptext3 0DE2                  __ptext4 0F46                  __ptext5 0D46  
                __ptext6 001D                  __ptext7 0C87                  __ptext8 0606  
                __ptext9 037E                _T2CONbits 0012               ??___xxtofl 0074  
   end_of_initialization 0019              ___fladd@grs 0067            ___xxtofl@sign 0078  
              _TRISCbits 0087              ___fldiv@grs 0034              ___fldiv@rem 002D  
            ___flmul@grs 0048              _CCP1CONbits 0017              _CCP2CONbits 001D  
    start_initialization 0013              __end_of_map 0E94              __end_of_isr 0F46  
              __Umul8_16 0C87                ___fladd@a 0058                ___fladd@b 0054  
              ___fldiv@a 0020                ___fldiv@b 0024                ___flmul@a 003E  
              ___flmul@b 003A                ___latbits 0002            __pcstackBANK0 0020  
          __pcstackBANK1 00A0                 ?___fladd 0054                 ?___fldiv 0020  
               ?___flmul 003A                 ?___fltol 0068               ?__Umul8_16 0070  
      interrupt_function 0004                 _PIE1bits 008C                 _PIR1bits 000C  
             _ADCON0bits 001F               _ADCON1bits 009F              ??__Umul8_16 0072  
               ___xxtofl 0F46               _INTCONbits 000B                 intlevel1 0000  
             _OSCCONbits 008F   __Umul8_16@multiplicand 0070            ___fladd@signs 0064  
           ___fladd@aexp 0065             ___fladd@bexp 0066     __Umul8_16@multiplier 0078  
      __Umul8_16@product 0074  
